   1              		.syntax unified
   2              		.cpu cortex-m3
   3              		.fpu softvfp
   4              		.eabi_attribute 20, 1
   5              		.eabi_attribute 21, 1
   6              		.eabi_attribute 23, 3
   7              		.eabi_attribute 24, 1
   8              		.eabi_attribute 25, 1
   9              		.eabi_attribute 26, 1
  10              		.eabi_attribute 30, 2
  11              		.eabi_attribute 18, 4
  12              		.thumb
  13              		.file	"Hw_Led.c"
  21              	.Ltext0:
  22              		.cfi_sections	.debug_frame
  23              		.section	.text.Hw_Led_Init,"ax",%progbits
  24              		.align	2
  25              		.global	Hw_Led_Init
  26              		.thumb
  27              		.thumb_func
  29              	Hw_Led_Init:
  30              	.LFB0:
  31              		.file 1 "../LIB_HW/Hw_Led.c"
   1:../LIB_HW/Hw_Led.c **** //----------------------------------------------------------------------------
   2:../LIB_HW/Hw_Led.c **** //    프로그램명 	: LED 관련 함수
   3:../LIB_HW/Hw_Led.c **** //
   4:../LIB_HW/Hw_Led.c **** //    만든이     	: 
   5:../LIB_HW/Hw_Led.c **** //
   6:../LIB_HW/Hw_Led.c **** //    날  짜     	: 
   7:../LIB_HW/Hw_Led.c **** //    
   8:../LIB_HW/Hw_Led.c **** //    최종 수정  	:
   9:../LIB_HW/Hw_Led.c **** //
  10:../LIB_HW/Hw_Led.c **** //    MPU_Type		:
  11:../LIB_HW/Hw_Led.c **** //
  12:../LIB_HW/Hw_Led.c **** //    파일명     	: Hw_Led.c
  13:../LIB_HW/Hw_Led.c **** //----------------------------------------------------------------------------
  14:../LIB_HW/Hw_Led.c **** 
  15:../LIB_HW/Hw_Led.c **** 
  16:../LIB_HW/Hw_Led.c **** //----- 헤더파일 열기
  17:../LIB_HW/Hw_Led.c **** //
  18:../LIB_HW/Hw_Led.c **** #define  HW_LED_LOCAL
  19:../LIB_HW/Hw_Led.c **** 
  20:../LIB_HW/Hw_Led.c **** 
  21:../LIB_HW/Hw_Led.c **** #include "Hw_Led.h"
  22:../LIB_HW/Hw_Led.c **** 
  23:../LIB_HW/Hw_Led.c **** 
  24:../LIB_HW/Hw_Led.c **** 
  25:../LIB_HW/Hw_Led.c **** 
  26:../LIB_HW/Hw_Led.c **** 
  27:../LIB_HW/Hw_Led.c **** /*---------------------------------------------------------------------------
  28:../LIB_HW/Hw_Led.c ****      TITLE   : Hw_Led_Init
  29:../LIB_HW/Hw_Led.c ****      WORK    : 
  30:../LIB_HW/Hw_Led.c ****      ARG     : void
  31:../LIB_HW/Hw_Led.c ****      RET     : void
  32:../LIB_HW/Hw_Led.c **** ---------------------------------------------------------------------------*/
  33:../LIB_HW/Hw_Led.c **** void Hw_Led_Init( void )
  34:../LIB_HW/Hw_Led.c **** {
  32              		.loc 1 34 0
  33              		.cfi_startproc
  34              		@ args = 0, pretend = 0, frame = 0
  35              		@ frame_needed = 0, uses_anonymous_args = 0
  36              		@ link register save eliminated.
  35:../LIB_HW/Hw_Led.c **** 	u32 PinNum;
  36:../LIB_HW/Hw_Led.c **** 
  37:../LIB_HW/Hw_Led.c **** 	REG_AFIO_MAPR &= ~(0x07 << 24);
  37              		.loc 1 37 0
  38 0000 0C4A     		ldr	r2, .L2
  38:../LIB_HW/Hw_Led.c **** 	REG_AFIO_MAPR |=  (0x04 << 24);
  39:../LIB_HW/Hw_Led.c **** 	
  40:../LIB_HW/Hw_Led.c **** 	PinNum = 3;
  41:../LIB_HW/Hw_Led.c **** 	REG_GPIOB_CRL &= ~(0x0F << (PinNum*4+0));	// Clear
  39              		.loc 1 41 0
  40 0002 0D4B     		ldr	r3, .L2+4
  37:../LIB_HW/Hw_Led.c **** 	REG_AFIO_MAPR &= ~(0x07 << 24);
  41              		.loc 1 37 0
  42 0004 1068     		ldr	r0, [r2, #0]
  43              	.LBB4:
  44              	.LBB5:
  42:../LIB_HW/Hw_Led.c **** 	REG_GPIOB_CRL |=  (0x03 << (PinNum*4+0));	// MODE, PB.3 Output mode, max speed 50Mhz
  43:../LIB_HW/Hw_Led.c **** 	REG_GPIOB_CRL |=  (0x00 << (PinNum*4+2));	// CNF,  PB.3 General purpose output push-pul
  44:../LIB_HW/Hw_Led.c **** 	
  45:../LIB_HW/Hw_Led.c **** 		
  46:../LIB_HW/Hw_Led.c **** 	Hw_Led_Off(0);
  47:../LIB_HW/Hw_Led.c **** }
  48:../LIB_HW/Hw_Led.c **** 
  49:../LIB_HW/Hw_Led.c **** 
  50:../LIB_HW/Hw_Led.c **** 
  51:../LIB_HW/Hw_Led.c **** 
  52:../LIB_HW/Hw_Led.c **** 
  53:../LIB_HW/Hw_Led.c **** /*---------------------------------------------------------------------------
  54:../LIB_HW/Hw_Led.c ****      TITLE   : Hw_Led_On
  55:../LIB_HW/Hw_Led.c ****      WORK    :
  56:../LIB_HW/Hw_Led.c ****      ARG     : void
  57:../LIB_HW/Hw_Led.c ****      RET     : void
  58:../LIB_HW/Hw_Led.c **** ---------------------------------------------------------------------------*/
  59:../LIB_HW/Hw_Led.c **** void Hw_Led_On( u8 Ch )
  60:../LIB_HW/Hw_Led.c **** {	
  61:../LIB_HW/Hw_Led.c **** 	switch( Ch )
  62:../LIB_HW/Hw_Led.c **** 	{
  63:../LIB_HW/Hw_Led.c **** 		case 0:
  64:../LIB_HW/Hw_Led.c **** 			CLR_BIT( REG_GPIOB_ODR, 3 );
  65:../LIB_HW/Hw_Led.c **** 			break;
  66:../LIB_HW/Hw_Led.c **** 	}
  67:../LIB_HW/Hw_Led.c **** }
  68:../LIB_HW/Hw_Led.c **** 
  69:../LIB_HW/Hw_Led.c **** 
  70:../LIB_HW/Hw_Led.c **** 
  71:../LIB_HW/Hw_Led.c **** 
  72:../LIB_HW/Hw_Led.c **** 
  73:../LIB_HW/Hw_Led.c **** /*---------------------------------------------------------------------------
  74:../LIB_HW/Hw_Led.c ****      TITLE   : Hw_Led_On
  75:../LIB_HW/Hw_Led.c ****      WORK    :
  76:../LIB_HW/Hw_Led.c ****      ARG     : void
  77:../LIB_HW/Hw_Led.c ****      RET     : void
  78:../LIB_HW/Hw_Led.c **** ---------------------------------------------------------------------------*/
  79:../LIB_HW/Hw_Led.c **** void Hw_Led_Off( u8 Ch )
  80:../LIB_HW/Hw_Led.c **** {
  81:../LIB_HW/Hw_Led.c **** 	switch( Ch )
  82:../LIB_HW/Hw_Led.c **** 	{
  83:../LIB_HW/Hw_Led.c **** 		case 0:
  84:../LIB_HW/Hw_Led.c **** 			SET_BIT( REG_GPIOB_ODR, 3 );
  45              		.loc 1 84 0
  46 0006 0D49     		ldr	r1, .L2+8
  47              	.LBE5:
  48              	.LBE4:
  37:../LIB_HW/Hw_Led.c **** 	REG_AFIO_MAPR &= ~(0x07 << 24);
  49              		.loc 1 37 0
  50 0008 20F0E060 		bic	r0, r0, #117440512
  51 000c 1060     		str	r0, [r2, #0]
  38:../LIB_HW/Hw_Led.c **** 	REG_AFIO_MAPR |=  (0x04 << 24);
  52              		.loc 1 38 0
  53 000e 1068     		ldr	r0, [r2, #0]
  54 0010 40F08060 		orr	r0, r0, #67108864
  55 0014 1060     		str	r0, [r2, #0]
  56              	.LVL0:
  41:../LIB_HW/Hw_Led.c **** 	REG_GPIOB_CRL &= ~(0x0F << (PinNum*4+0));	// Clear
  57              		.loc 1 41 0
  58 0016 1A68     		ldr	r2, [r3, #0]
  59 0018 22F47040 		bic	r0, r2, #61440
  60 001c 1860     		str	r0, [r3, #0]
  42:../LIB_HW/Hw_Led.c **** 	REG_GPIOB_CRL |=  (0x03 << (PinNum*4+0));	// MODE, PB.3 Output mode, max speed 50Mhz
  61              		.loc 1 42 0
  62 001e 1A68     		ldr	r2, [r3, #0]
  63 0020 42F44050 		orr	r0, r2, #12288
  64 0024 1860     		str	r0, [r3, #0]
  43:../LIB_HW/Hw_Led.c **** 	REG_GPIOB_CRL |=  (0x00 << (PinNum*4+2));	// CNF,  PB.3 General purpose output push-pul
  65              		.loc 1 43 0
  66 0026 1A68     		ldr	r2, [r3, #0]
  67 0028 1A60     		str	r2, [r3, #0]
  68              	.LVL1:
  69              	.LBB7:
  70              	.LBB6:
  71              		.loc 1 84 0
  72 002a 0868     		ldr	r0, [r1, #0]
  73 002c 40F00803 		orr	r3, r0, #8
  74 0030 0B60     		str	r3, [r1, #0]
  75              	.LBE6:
  76              	.LBE7:
  47:../LIB_HW/Hw_Led.c **** }
  77              		.loc 1 47 0
  78 0032 7047     		bx	lr
  79              	.L3:
  80              		.align	2
  81              	.L2:
  82 0034 04000140 		.word	1073807364
  83 0038 000C0140 		.word	1073810432
  84 003c 0C0C0140 		.word	1073810444
  85              		.cfi_endproc
  86              	.LFE0:
  88              		.section	.text.Hw_Led_On,"ax",%progbits
  89              		.align	2
  90              		.global	Hw_Led_On
  91              		.thumb
  92              		.thumb_func
  94              	Hw_Led_On:
  95              	.LFB1:
  60:../LIB_HW/Hw_Led.c **** {	
  96              		.loc 1 60 0
  97              		.cfi_startproc
  98              		@ args = 0, pretend = 0, frame = 0
  99              		@ frame_needed = 0, uses_anonymous_args = 0
 100              		@ link register save eliminated.
 101              	.LVL2:
  61:../LIB_HW/Hw_Led.c **** 	switch( Ch )
 102              		.loc 1 61 0
 103 0000 20B9     		cbnz	r0, .L4
  64:../LIB_HW/Hw_Led.c **** 			CLR_BIT( REG_GPIOB_ODR, 3 );
 104              		.loc 1 64 0
 105 0002 034B     		ldr	r3, .L8
 106 0004 1868     		ldr	r0, [r3, #0]
 107              	.LVL3:
 108 0006 20F00802 		bic	r2, r0, #8
 109 000a 1A60     		str	r2, [r3, #0]
 110              	.L4:
 111 000c 7047     		bx	lr
 112              	.L9:
 113 000e 00BF     		.align	2
 114              	.L8:
 115 0010 0C0C0140 		.word	1073810444
 116              		.cfi_endproc
 117              	.LFE1:
 119              		.section	.text.Hw_Led_Off,"ax",%progbits
 120              		.align	2
 121              		.global	Hw_Led_Off
 122              		.thumb
 123              		.thumb_func
 125              	Hw_Led_Off:
 126              	.LFB2:
  80:../LIB_HW/Hw_Led.c **** {
 127              		.loc 1 80 0
 128              		.cfi_startproc
 129              		@ args = 0, pretend = 0, frame = 0
 130              		@ frame_needed = 0, uses_anonymous_args = 0
 131              		@ link register save eliminated.
 132              	.LVL4:
  81:../LIB_HW/Hw_Led.c **** 	switch( Ch )
 133              		.loc 1 81 0
 134 0000 20B9     		cbnz	r0, .L10
 135              		.loc 1 84 0
 136 0002 034B     		ldr	r3, .L13
 137 0004 1868     		ldr	r0, [r3, #0]
 138              	.LVL5:
 139 0006 40F00802 		orr	r2, r0, #8
 140 000a 1A60     		str	r2, [r3, #0]
 141              	.L10:
 142 000c 7047     		bx	lr
 143              	.L14:
 144 000e 00BF     		.align	2
 145              	.L13:
 146 0010 0C0C0140 		.word	1073810444
 147              		.cfi_endproc
 148              	.LFE2:
 150              		.section	.text.Hw_Led_Toggle,"ax",%progbits
 151              		.align	2
 152              		.global	Hw_Led_Toggle
 153              		.thumb
 154              		.thumb_func
 156              	Hw_Led_Toggle:
 157              	.LFB3:
  85:../LIB_HW/Hw_Led.c **** 			break;
  86:../LIB_HW/Hw_Led.c **** 	}
  87:../LIB_HW/Hw_Led.c **** }
  88:../LIB_HW/Hw_Led.c **** 
  89:../LIB_HW/Hw_Led.c **** 
  90:../LIB_HW/Hw_Led.c **** 
  91:../LIB_HW/Hw_Led.c **** 
  92:../LIB_HW/Hw_Led.c **** 
  93:../LIB_HW/Hw_Led.c **** /*---------------------------------------------------------------------------
  94:../LIB_HW/Hw_Led.c ****      TITLE   : Hw_Led_On
  95:../LIB_HW/Hw_Led.c ****      WORK    :
  96:../LIB_HW/Hw_Led.c ****      ARG     : void
  97:../LIB_HW/Hw_Led.c ****      RET     : void
  98:../LIB_HW/Hw_Led.c **** ---------------------------------------------------------------------------*/
  99:../LIB_HW/Hw_Led.c **** void Hw_Led_Toggle( u8 Ch )
 100:../LIB_HW/Hw_Led.c **** {
 158              		.loc 1 100 0
 159              		.cfi_startproc
 160              		@ args = 0, pretend = 0, frame = 0
 161              		@ frame_needed = 0, uses_anonymous_args = 0
 162              		@ link register save eliminated.
 163              	.LVL6:
 101:../LIB_HW/Hw_Led.c **** 	switch( Ch )
 164              		.loc 1 101 0
 165 0000 20B9     		cbnz	r0, .L15
 102:../LIB_HW/Hw_Led.c **** 	{
 103:../LIB_HW/Hw_Led.c **** 		case 0:
 104:../LIB_HW/Hw_Led.c **** 			TGL_BIT( REG_GPIOB_ODR, 3 );
 166              		.loc 1 104 0
 167 0002 034B     		ldr	r3, .L18
 168 0004 1868     		ldr	r0, [r3, #0]
 169              	.LVL7:
 170 0006 80F00802 		eor	r2, r0, #8
 171 000a 1A60     		str	r2, [r3, #0]
 172              	.L15:
 173 000c 7047     		bx	lr
 174              	.L19:
 175 000e 00BF     		.align	2
 176              	.L18:
 177 0010 0C0C0140 		.word	1073810444
 178              		.cfi_endproc
 179              	.LFE3:
 181              		.section	.text.Hw_Led_Wait,"ax",%progbits
 182              		.align	2
 183              		.global	Hw_Led_Wait
 184              		.thumb
 185              		.thumb_func
 187              	Hw_Led_Wait:
 188              	.LFB4:
 105:../LIB_HW/Hw_Led.c **** 			break;
 106:../LIB_HW/Hw_Led.c **** 	}
 107:../LIB_HW/Hw_Led.c **** }
 108:../LIB_HW/Hw_Led.c **** 
 109:../LIB_HW/Hw_Led.c **** 
 110:../LIB_HW/Hw_Led.c **** 
 111:../LIB_HW/Hw_Led.c **** 
 112:../LIB_HW/Hw_Led.c **** 
 113:../LIB_HW/Hw_Led.c **** /*---------------------------------------------------------------------------
 114:../LIB_HW/Hw_Led.c ****      TITLE   : Hw_Led_Wait
 115:../LIB_HW/Hw_Led.c ****      WORK    : 
 116:../LIB_HW/Hw_Led.c ****      ARG     : void
 117:../LIB_HW/Hw_Led.c ****      RET     : void
 118:../LIB_HW/Hw_Led.c **** ---------------------------------------------------------------------------*/
 119:../LIB_HW/Hw_Led.c **** void Hw_Led_Wait( u32 delay )
 120:../LIB_HW/Hw_Led.c **** {
 189              		.loc 1 120 0
 190              		.cfi_startproc
 191              		@ args = 0, pretend = 0, frame = 8
 192              		@ frame_needed = 0, uses_anonymous_args = 0
 193              		@ link register save eliminated.
 194              	.LVL8:
 195 0000 82B0     		sub	sp, sp, #8
 196              	.LCFI0:
 197              		.cfi_def_cfa_offset 8
 121:../LIB_HW/Hw_Led.c ****     volatile u32 i;
 122:../LIB_HW/Hw_Led.c ****     for ( i = 0 ; i < delay ; i++ ){ };
 198              		.loc 1 122 0
 199 0002 0021     		movs	r1, #0
 200 0004 0191     		str	r1, [sp, #4]
 201              	.LVL9:
 202 0006 019B     		ldr	r3, [sp, #4]
 203 0008 9842     		cmp	r0, r3
 204 000a 05D9     		bls	.L20
 205              	.L23:
 206              		.loc 1 122 0 is_stmt 0 discriminator 2
 207 000c 0199     		ldr	r1, [sp, #4]
 208 000e 4B1C     		adds	r3, r1, #1
 209              	.LVL10:
 210 0010 0193     		str	r3, [sp, #4]
 211              	.LVL11:
 212 0012 019A     		ldr	r2, [sp, #4]
 213 0014 8242     		cmp	r2, r0
 214 0016 F9D3     		bcc	.L23
 215              	.L20:
 123:../LIB_HW/Hw_Led.c **** }
 216              		.loc 1 123 0 is_stmt 1
 217 0018 02B0     		add	sp, sp, #8
 218 001a 7047     		bx	lr
 219              		.cfi_endproc
 220              	.LFE4:
 222              		.text
 223              	.Letext0: