   1              		.syntax unified
   2              		.cpu cortex-m3
   3              		.fpu softvfp
   4              		.eabi_attribute 20, 1
   5              		.eabi_attribute 21, 1
   6              		.eabi_attribute 23, 3
   7              		.eabi_attribute 24, 1
   8              		.eabi_attribute 25, 1
   9              		.eabi_attribute 26, 1
  10              		.eabi_attribute 30, 2
  11              		.eabi_attribute 34, 1
  12              		.eabi_attribute 18, 4
  13              		.thumb
  14              		.file	"Hw_IMU.c"
  15              		.text
  16              	.Ltext0:
  17              		.cfi_sections	.debug_frame
  18              		.section	.text.Hw_IMU_Init,"ax",%progbits
  19              		.align	2
  20              		.global	Hw_IMU_Init
  21              		.thumb
  22              		.thumb_func
  24              	Hw_IMU_Init:
  25              	.LFB0:
  26              		.file 1 "../LIB_HW/Hw_IMU.c"
   1:../LIB_HW/Hw_IMU.c **** //----------------------------------------------------------------------------
   2:../LIB_HW/Hw_IMU.c **** //    프로그램명 	: IMU 센서 관련 함수
   3:../LIB_HW/Hw_IMU.c **** //
   4:../LIB_HW/Hw_IMU.c **** //    만든이     	: Cho Han Cheol(Baram)
   5:../LIB_HW/Hw_IMU.c **** //
   6:../LIB_HW/Hw_IMU.c **** //    날  짜     	: 
   7:../LIB_HW/Hw_IMU.c **** //    
   8:../LIB_HW/Hw_IMU.c **** //    최종 수정  	:
   9:../LIB_HW/Hw_IMU.c **** //
  10:../LIB_HW/Hw_IMU.c **** //    MPU_Type	:
  11:../LIB_HW/Hw_IMU.c **** //
  12:../LIB_HW/Hw_IMU.c **** //    파일명     	: Hw_IMU.c
  13:../LIB_HW/Hw_IMU.c **** //----------------------------------------------------------------------------
  14:../LIB_HW/Hw_IMU.c **** 
  15:../LIB_HW/Hw_IMU.c **** 
  16:../LIB_HW/Hw_IMU.c **** //----- 헤더파일 열기
  17:../LIB_HW/Hw_IMU.c **** //
  18:../LIB_HW/Hw_IMU.c **** #define  HW_HMC5883_LOCAL
  19:../LIB_HW/Hw_IMU.c **** 
  20:../LIB_HW/Hw_IMU.c **** 
  21:../LIB_HW/Hw_IMU.c **** #include "Hw_IMU.h"
  22:../LIB_HW/Hw_IMU.c **** #include "Lb_Printf.h"
  23:../LIB_HW/Hw_IMU.c **** #include "math.h"
  24:../LIB_HW/Hw_IMU.c **** 
  25:../LIB_HW/Hw_IMU.c **** 
  26:../LIB_HW/Hw_IMU.c **** 
  27:../LIB_HW/Hw_IMU.c **** 
  28:../LIB_HW/Hw_IMU.c **** 
  29:../LIB_HW/Hw_IMU.c **** 
  30:../LIB_HW/Hw_IMU.c **** 
  31:../LIB_HW/Hw_IMU.c **** 
  32:../LIB_HW/Hw_IMU.c **** /*---------------------------------------------------------------------------
  33:../LIB_HW/Hw_IMU.c ****      TITLE   : Hw_IMU_Init
  34:../LIB_HW/Hw_IMU.c ****      WORK    : 
  35:../LIB_HW/Hw_IMU.c ****      ARG     : void
  36:../LIB_HW/Hw_IMU.c ****      RET     : void
  37:../LIB_HW/Hw_IMU.c **** ---------------------------------------------------------------------------*/
  38:../LIB_HW/Hw_IMU.c **** u16 Hw_IMU_Init( void )
  39:../LIB_HW/Hw_IMU.c **** {
  27              		.loc 1 39 0
  28              		.cfi_startproc
  29              		@ args = 0, pretend = 0, frame = 0
  30              		@ frame_needed = 0, uses_anonymous_args = 0
  31              	.LVL0:
  32 0000 10B5     		push	{r4, lr}
  33              	.LCFI0:
  34              		.cfi_def_cfa_offset 8
  35              		.cfi_offset 4, -8
  36              		.cfi_offset 14, -4
  40:../LIB_HW/Hw_IMU.c **** 	u16 Ret = 0;
  41:../LIB_HW/Hw_IMU.c **** 
  42:../LIB_HW/Hw_IMU.c **** 
  43:../LIB_HW/Hw_IMU.c **** 	Ret = Hw_MPU6050_Init();
  37              		.loc 1 43 0
  38 0002 0B4B     		ldr	r3, .L10
  39 0004 9847     		blx	r3
  40              	.LVL1:
  44:../LIB_HW/Hw_IMU.c **** 
  45:../LIB_HW/Hw_IMU.c **** 	if( Ret != 0 )
  41              		.loc 1 45 0
  42 0006 0446     		mov	r4, r0
  43 0008 58B9     		cbnz	r0, .L8
  46:../LIB_HW/Hw_IMU.c **** 	{
  47:../LIB_HW/Hw_IMU.c **** 		Lb_printf("Hw_MPU6050_Init Ret : 0x%x\n", Ret);
  48:../LIB_HW/Hw_IMU.c **** 		return Ret;
  49:../LIB_HW/Hw_IMU.c **** 	} 
  50:../LIB_HW/Hw_IMU.c **** 
  51:../LIB_HW/Hw_IMU.c **** 
  52:../LIB_HW/Hw_IMU.c **** 	Ret = Hw_HMC5883_Init();
  44              		.loc 1 52 0
  45 000a 0A48     		ldr	r0, .L10+4
  46              	.LVL2:
  47 000c 8047     		blx	r0
  48              	.LVL3:
  53:../LIB_HW/Hw_IMU.c **** 
  54:../LIB_HW/Hw_IMU.c **** 	if( Ret != 0 )
  49              		.loc 1 54 0
  50 000e 0446     		mov	r4, r0
  51 0010 08B9     		cbnz	r0, .L9
  55:../LIB_HW/Hw_IMU.c **** 	{
  56:../LIB_HW/Hw_IMU.c **** 		Lb_printf("Hw_HMC5883_Init Ret : 0x%x\n", Ret);
  57:../LIB_HW/Hw_IMU.c **** 		return Ret;
  58:../LIB_HW/Hw_IMU.c **** 	} 
  59:../LIB_HW/Hw_IMU.c **** 
  60:../LIB_HW/Hw_IMU.c **** 
  61:../LIB_HW/Hw_IMU.c **** 	return Ret;
  62:../LIB_HW/Hw_IMU.c **** }
  52              		.loc 1 62 0
  53 0012 2046     		mov	r0, r4
  54              	.LVL4:
  55 0014 10BD     		pop	{r4, pc}
  56              	.LVL5:
  57              	.L9:
  56:../LIB_HW/Hw_IMU.c **** 		Lb_printf("Hw_HMC5883_Init Ret : 0x%x\n", Ret);
  58              		.loc 1 56 0
  59 0016 0848     		ldr	r0, .L10+8
  60              	.LVL6:
  61 0018 2146     		mov	r1, r4
  62 001a 084A     		ldr	r2, .L10+12
  63 001c 9047     		blx	r2
  64              	.LVL7:
  65              		.loc 1 62 0
  66 001e 2046     		mov	r0, r4
  67 0020 10BD     		pop	{r4, pc}
  68              	.LVL8:
  69              	.L8:
  47:../LIB_HW/Hw_IMU.c **** 		Lb_printf("Hw_MPU6050_Init Ret : 0x%x\n", Ret);
  70              		.loc 1 47 0
  71 0022 0748     		ldr	r0, .L10+16
  72              	.LVL9:
  73 0024 2146     		mov	r1, r4
  74 0026 054B     		ldr	r3, .L10+12
  75 0028 9847     		blx	r3
  76              	.LVL10:
  77              		.loc 1 62 0
  78 002a 2046     		mov	r0, r4
  79 002c 10BD     		pop	{r4, pc}
  80              	.L11:
  81 002e 00BF     		.align	2
  82              	.L10:
  83 0030 00000000 		.word	Hw_MPU6050_Init
  84 0034 00000000 		.word	Hw_HMC5883_Init
  85 0038 1C000000 		.word	.LC1
  86 003c 00000000 		.word	Lb_printf
  87 0040 00000000 		.word	.LC0
  88              		.cfi_endproc
  89              	.LFE0:
  91              		.section	.text.Hw_IMU_Reset,"ax",%progbits
  92              		.align	2
  93              		.global	Hw_IMU_Reset
  94              		.thumb
  95              		.thumb_func
  97              	Hw_IMU_Reset:
  98              	.LFB1:
  63:../LIB_HW/Hw_IMU.c **** 
  64:../LIB_HW/Hw_IMU.c **** 
  65:../LIB_HW/Hw_IMU.c **** 
  66:../LIB_HW/Hw_IMU.c **** 
  67:../LIB_HW/Hw_IMU.c **** /*---------------------------------------------------------------------------
  68:../LIB_HW/Hw_IMU.c ****      TITLE   : Hw_IMU_Reset
  69:../LIB_HW/Hw_IMU.c ****      WORK    : 
  70:../LIB_HW/Hw_IMU.c ****      ARG     : void
  71:../LIB_HW/Hw_IMU.c ****      RET     : void
  72:../LIB_HW/Hw_IMU.c **** ---------------------------------------------------------------------------*/
  73:../LIB_HW/Hw_IMU.c **** void Hw_IMU_Reset( HW_IMU_DATA_OBJ *ptr_data )
  74:../LIB_HW/Hw_IMU.c **** {
  99              		.loc 1 74 0
 100              		.cfi_startproc
 101              		@ args = 0, pretend = 0, frame = 0
 102              		@ frame_needed = 0, uses_anonymous_args = 0
 103              		@ link register save eliminated.
 104              	.LVL11:
 105 0000 7047     		bx	lr
 106              		.cfi_endproc
 107              	.LFE1:
 109              		.global	__aeabi_i2d
 110              		.global	__aeabi_dadd
 111              		.global	__aeabi_dmul
 112              		.global	__aeabi_d2f
 113 0002 00BF     		.section	.text.Hw_IMU_GetData,"ax",%progbits
 114              		.align	2
 115              		.global	Hw_IMU_GetData
 116              		.thumb
 117              		.thumb_func
 119              	Hw_IMU_GetData:
 120              	.LFB2:
  75:../LIB_HW/Hw_IMU.c **** 
  76:../LIB_HW/Hw_IMU.c **** }
  77:../LIB_HW/Hw_IMU.c **** 
  78:../LIB_HW/Hw_IMU.c **** 
  79:../LIB_HW/Hw_IMU.c **** 
  80:../LIB_HW/Hw_IMU.c **** 
  81:../LIB_HW/Hw_IMU.c **** 
  82:../LIB_HW/Hw_IMU.c **** /*---------------------------------------------------------------------------
  83:../LIB_HW/Hw_IMU.c ****      TITLE   : Hw_IMU_GetData
  84:../LIB_HW/Hw_IMU.c ****      WORK    : 
  85:../LIB_HW/Hw_IMU.c ****      ARG     : void
  86:../LIB_HW/Hw_IMU.c ****      RET     : void
  87:../LIB_HW/Hw_IMU.c **** ---------------------------------------------------------------------------*/
  88:../LIB_HW/Hw_IMU.c **** u16 Hw_IMU_GetData( HW_IMU_DATA_OBJ *ptr_data )
  89:../LIB_HW/Hw_IMU.c **** {
 121              		.loc 1 89 0
 122              		.cfi_startproc
 123              		@ args = 0, pretend = 0, frame = 32
 124              		@ frame_needed = 0, uses_anonymous_args = 0
 125              	.LVL12:
 126              		.loc 1 89 0
 127 0000 2DE9F04F 		push	{r4, r5, r6, r7, r8, r9, sl, fp, lr}
 128              	.LCFI1:
 129              		.cfi_def_cfa_offset 36
 130              		.cfi_offset 4, -36
 131              		.cfi_offset 5, -32
 132              		.cfi_offset 6, -28
 133              		.cfi_offset 7, -24
 134              		.cfi_offset 8, -20
 135              		.cfi_offset 9, -16
 136              		.cfi_offset 10, -12
 137              		.cfi_offset 11, -8
 138              		.cfi_offset 14, -4
  90:../LIB_HW/Hw_IMU.c **** 	u16 Err = 0;
  91:../LIB_HW/Hw_IMU.c **** 
  92:../LIB_HW/Hw_IMU.c **** 	HW_MPU6050_DATA_OBJ MPU6050_Data;
  93:../LIB_HW/Hw_IMU.c **** 	HW_HMC5883_DATA_OBJ HMC5883_Data;
  94:../LIB_HW/Hw_IMU.c **** 
  95:../LIB_HW/Hw_IMU.c **** 
  96:../LIB_HW/Hw_IMU.c **** 	ptr_data->Enable_Acc     = FALSE;
 139              		.loc 1 96 0
 140 0004 4FF00008 		mov	r8, #0
  89:../LIB_HW/Hw_IMU.c **** {
 141              		.loc 1 89 0
 142 0008 89B0     		sub	sp, sp, #36
 143              	.LCFI2:
 144              		.cfi_def_cfa_offset 72
 145              		.loc 1 96 0
 146 000a 80F80080 		strb	r8, [r0, #0]
  97:../LIB_HW/Hw_IMU.c **** 	ptr_data->Enable_Temp    = FALSE;
 147              		.loc 1 97 0
 148 000e 80F80180 		strb	r8, [r0, #1]
  98:../LIB_HW/Hw_IMU.c **** 	ptr_data->Enable_Gyro    = FALSE;
 149              		.loc 1 98 0
 150 0012 80F80280 		strb	r8, [r0, #2]
  99:../LIB_HW/Hw_IMU.c **** 	ptr_data->Enable_Compass = FALSE;
 151              		.loc 1 99 0
 152 0016 80F80380 		strb	r8, [r0, #3]
 100:../LIB_HW/Hw_IMU.c **** 
 101:../LIB_HW/Hw_IMU.c **** 
 102:../LIB_HW/Hw_IMU.c **** 	if( Hw_HMC5883_GetEnable() == TRUE )
 153              		.loc 1 102 0
 154 001a 3F4F     		ldr	r7, .L19+16
  89:../LIB_HW/Hw_IMU.c **** {
 155              		.loc 1 89 0
 156 001c 0646     		mov	r6, r0
 157              		.loc 1 102 0
 158 001e B847     		blx	r7
 159              	.LVL13:
 160 0020 0128     		cmp	r0, #1
 161 0022 0446     		mov	r4, r0
 162 0024 18D0     		beq	.L17
 163              	.LVL14:
 164              	.L14:
 103:../LIB_HW/Hw_IMU.c **** 	{
 104:../LIB_HW/Hw_IMU.c **** 		Err = Hw_MPU6050_GetData( &MPU6050_Data );
 105:../LIB_HW/Hw_IMU.c **** 
 106:../LIB_HW/Hw_IMU.c **** 		if( Err == 0 )
 107:../LIB_HW/Hw_IMU.c **** 		{
 108:../LIB_HW/Hw_IMU.c **** 			ptr_data->X_Acc = MPU6050_Data.X_Acc;
 109:../LIB_HW/Hw_IMU.c **** 			ptr_data->Y_Acc = MPU6050_Data.Y_Acc;
 110:../LIB_HW/Hw_IMU.c **** 			ptr_data->Z_Acc = MPU6050_Data.Z_Acc;
 111:../LIB_HW/Hw_IMU.c **** 			
 112:../LIB_HW/Hw_IMU.c **** 			ptr_data->Temp  = MPU6050_Data.Temp;
 113:../LIB_HW/Hw_IMU.c **** 
 114:../LIB_HW/Hw_IMU.c **** 			ptr_data->X_Gyro = MPU6050_Data.X_Gyro;
 115:../LIB_HW/Hw_IMU.c **** 			ptr_data->Y_Gyro = MPU6050_Data.Y_Gyro;
 116:../LIB_HW/Hw_IMU.c **** 			ptr_data->Z_Gyro = MPU6050_Data.Z_Gyro;
 117:../LIB_HW/Hw_IMU.c **** 
 118:../LIB_HW/Hw_IMU.c **** 			ptr_data->Enable_Acc     = TRUE;
 119:../LIB_HW/Hw_IMU.c **** 			ptr_data->Enable_Temp    = TRUE;
 120:../LIB_HW/Hw_IMU.c **** 			ptr_data->Enable_Gyro    = TRUE;	
 121:../LIB_HW/Hw_IMU.c **** 
 122:../LIB_HW/Hw_IMU.c **** 			// 각도 계산 
 123:../LIB_HW/Hw_IMU.c **** 			ptr_data->X_AccAngle = (atan2(MPU6050_Data.Y_Acc, MPU6050_Data.Z_Acc)+M_PI)*RAD_TO_DEG;
 124:../LIB_HW/Hw_IMU.c **** 			ptr_data->Y_AccAngle = (atan2(MPU6050_Data.X_Acc, MPU6050_Data.Z_Acc)+M_PI)*RAD_TO_DEG;
 125:../LIB_HW/Hw_IMU.c **** 		}
 126:../LIB_HW/Hw_IMU.c **** 	}
 127:../LIB_HW/Hw_IMU.c **** 
 128:../LIB_HW/Hw_IMU.c **** 
 129:../LIB_HW/Hw_IMU.c **** 
 130:../LIB_HW/Hw_IMU.c **** 	if( Hw_HMC5883_GetEnable() == TRUE )
 165              		.loc 1 130 0
 166 0026 B847     		blx	r7
 167              	.LVL15:
 168 0028 0128     		cmp	r0, #1
 169 002a 0446     		mov	r4, r0
 170 002c 03D0     		beq	.L18
 171              	.LVL16:
 172              	.L15:
 131:../LIB_HW/Hw_IMU.c **** 	{
 132:../LIB_HW/Hw_IMU.c **** 		Err = Hw_HMC5883_GetData( &HMC5883_Data );	
 133:../LIB_HW/Hw_IMU.c **** 
 134:../LIB_HW/Hw_IMU.c **** 		if( Err == 0 )
 135:../LIB_HW/Hw_IMU.c **** 		{
 136:../LIB_HW/Hw_IMU.c **** 			ptr_data->X_Compass = HMC5883_Data.X_Compass;
 137:../LIB_HW/Hw_IMU.c **** 			ptr_data->Y_Compass = HMC5883_Data.Y_Compass;
 138:../LIB_HW/Hw_IMU.c **** 			ptr_data->Z_Compass = HMC5883_Data.Z_Compass;
 139:../LIB_HW/Hw_IMU.c **** 
 140:../LIB_HW/Hw_IMU.c **** 			ptr_data->Enable_Compass = TRUE;			
 141:../LIB_HW/Hw_IMU.c **** 		}
 142:../LIB_HW/Hw_IMU.c **** 	}
 143:../LIB_HW/Hw_IMU.c **** 
 144:../LIB_HW/Hw_IMU.c **** 
 145:../LIB_HW/Hw_IMU.c **** 	return Err;
 146:../LIB_HW/Hw_IMU.c **** }
 173              		.loc 1 146 0
 174 002e 4046     		mov	r0, r8
 175 0030 09B0     		add	sp, sp, #36
 176 0032 BDE8F08F 		pop	{r4, r5, r6, r7, r8, r9, sl, fp, pc}
 177              	.L18:
 132:../LIB_HW/Hw_IMU.c **** 		Err = Hw_HMC5883_GetData( &HMC5883_Data );	
 178              		.loc 1 132 0
 179 0036 02A8     		add	r0, sp, #8
 180 0038 384A     		ldr	r2, .L19+20
 181 003a 9047     		blx	r2
 182              	.LVL17:
 134:../LIB_HW/Hw_IMU.c **** 		if( Err == 0 )
 183              		.loc 1 134 0
 184 003c 8046     		mov	r8, r0
 185 003e 0028     		cmp	r0, #0
 186 0040 F5D1     		bne	.L15
 136:../LIB_HW/Hw_IMU.c **** 			ptr_data->X_Compass = HMC5883_Data.X_Compass;
 187              		.loc 1 136 0
 188 0042 BDF80800 		ldrh	r0, [sp, #8]
 189              	.LVL18:
 137:../LIB_HW/Hw_IMU.c **** 			ptr_data->Y_Compass = HMC5883_Data.Y_Compass;
 190              		.loc 1 137 0
 191 0046 BDF80A30 		ldrh	r3, [sp, #10]
 138:../LIB_HW/Hw_IMU.c **** 			ptr_data->Z_Compass = HMC5883_Data.Z_Compass;
 192              		.loc 1 138 0
 193 004a BDF80C10 		ldrh	r1, [sp, #12]
 136:../LIB_HW/Hw_IMU.c **** 			ptr_data->X_Compass = HMC5883_Data.X_Compass;
 194              		.loc 1 136 0
 195 004e 7082     		strh	r0, [r6, #18]	@ movhi
 137:../LIB_HW/Hw_IMU.c **** 			ptr_data->Y_Compass = HMC5883_Data.Y_Compass;
 196              		.loc 1 137 0
 197 0050 B382     		strh	r3, [r6, #20]	@ movhi
 138:../LIB_HW/Hw_IMU.c **** 			ptr_data->Z_Compass = HMC5883_Data.Z_Compass;
 198              		.loc 1 138 0
 199 0052 F182     		strh	r1, [r6, #22]	@ movhi
 140:../LIB_HW/Hw_IMU.c **** 			ptr_data->Enable_Compass = TRUE;			
 200              		.loc 1 140 0
 201 0054 F470     		strb	r4, [r6, #3]
 202 0056 EAE7     		b	.L15
 203              	.LVL19:
 204              	.L17:
 104:../LIB_HW/Hw_IMU.c **** 		Err = Hw_MPU6050_GetData( &MPU6050_Data );
 205              		.loc 1 104 0
 206 0058 04A8     		add	r0, sp, #16
 207 005a 314B     		ldr	r3, .L19+24
 208 005c 9847     		blx	r3
 209              	.LVL20:
 106:../LIB_HW/Hw_IMU.c **** 		if( Err == 0 )
 210              		.loc 1 106 0
 211 005e 8046     		mov	r8, r0
 212 0060 0028     		cmp	r0, #0
 213 0062 E0D1     		bne	.L14
 108:../LIB_HW/Hw_IMU.c **** 			ptr_data->X_Acc = MPU6050_Data.X_Acc;
 214              		.loc 1 108 0
 215 0064 BDF81010 		ldrh	r1, [sp, #16]
 112:../LIB_HW/Hw_IMU.c **** 			ptr_data->Temp  = MPU6050_Data.Temp;
 216              		.loc 1 112 0
 217 0068 BDF81620 		ldrh	r2, [sp, #22]
 115:../LIB_HW/Hw_IMU.c **** 			ptr_data->Y_Gyro = MPU6050_Data.Y_Gyro;
 218              		.loc 1 115 0
 219 006c BDF81A30 		ldrh	r3, [sp, #26]
 110:../LIB_HW/Hw_IMU.c **** 			ptr_data->Z_Acc = MPU6050_Data.Z_Acc;
 220              		.loc 1 110 0
 221 0070 BDF814A0 		ldrh	sl, [sp, #20]
 109:../LIB_HW/Hw_IMU.c **** 			ptr_data->Y_Acc = MPU6050_Data.Y_Acc;
 222              		.loc 1 109 0
 223 0074 BDF81200 		ldrh	r0, [sp, #18]
 224              	.LVL21:
 114:../LIB_HW/Hw_IMU.c **** 			ptr_data->X_Gyro = MPU6050_Data.X_Gyro;
 225              		.loc 1 114 0
 226 0078 BDF81850 		ldrh	r5, [sp, #24]
 108:../LIB_HW/Hw_IMU.c **** 			ptr_data->X_Acc = MPU6050_Data.X_Acc;
 227              		.loc 1 108 0
 228 007c B180     		strh	r1, [r6, #4]	@ movhi
 116:../LIB_HW/Hw_IMU.c **** 			ptr_data->Z_Gyro = MPU6050_Data.Z_Gyro;
 229              		.loc 1 116 0
 230 007e BDF81C10 		ldrh	r1, [sp, #28]
 123:../LIB_HW/Hw_IMU.c **** 			ptr_data->X_AccAngle = (atan2(MPU6050_Data.Y_Acc, MPU6050_Data.Z_Acc)+M_PI)*RAD_TO_DEG;
 231              		.loc 1 123 0
 232 0082 DFF8A890 		ldr	r9, .L19+36
 112:../LIB_HW/Hw_IMU.c **** 			ptr_data->Temp  = MPU6050_Data.Temp;
 233              		.loc 1 112 0
 234 0086 7281     		strh	r2, [r6, #10]	@ movhi
 115:../LIB_HW/Hw_IMU.c **** 			ptr_data->Y_Gyro = MPU6050_Data.Y_Gyro;
 235              		.loc 1 115 0
 236 0088 F381     		strh	r3, [r6, #14]	@ movhi
 109:../LIB_HW/Hw_IMU.c **** 			ptr_data->Y_Acc = MPU6050_Data.Y_Acc;
 237              		.loc 1 109 0
 238 008a F080     		strh	r0, [r6, #6]	@ movhi
 110:../LIB_HW/Hw_IMU.c **** 			ptr_data->Z_Acc = MPU6050_Data.Z_Acc;
 239              		.loc 1 110 0
 240 008c A6F808A0 		strh	sl, [r6, #8]	@ movhi
 114:../LIB_HW/Hw_IMU.c **** 			ptr_data->X_Gyro = MPU6050_Data.X_Gyro;
 241              		.loc 1 114 0
 242 0090 B581     		strh	r5, [r6, #12]	@ movhi
 118:../LIB_HW/Hw_IMU.c **** 			ptr_data->Enable_Acc     = TRUE;
 243              		.loc 1 118 0
 244 0092 3470     		strb	r4, [r6, #0]
 119:../LIB_HW/Hw_IMU.c **** 			ptr_data->Enable_Temp    = TRUE;
 245              		.loc 1 119 0
 246 0094 7470     		strb	r4, [r6, #1]
 120:../LIB_HW/Hw_IMU.c **** 			ptr_data->Enable_Gyro    = TRUE;	
 247              		.loc 1 120 0
 248 0096 B470     		strb	r4, [r6, #2]
 116:../LIB_HW/Hw_IMU.c **** 			ptr_data->Z_Gyro = MPU6050_Data.Z_Gyro;
 249              		.loc 1 116 0
 250 0098 3182     		strh	r1, [r6, #16]	@ movhi
 123:../LIB_HW/Hw_IMU.c **** 			ptr_data->X_AccAngle = (atan2(MPU6050_Data.Y_Acc, MPU6050_Data.Z_Acc)+M_PI)*RAD_TO_DEG;
 251              		.loc 1 123 0
 252 009a 00B2     		sxth	r0, r0
 253 009c C847     		blx	r9
 254              	.LVL22:
 255 009e 0446     		mov	r4, r0
 256 00a0 0FFA8AF0 		sxth	r0, sl
 257 00a4 0D46     		mov	r5, r1
 258 00a6 C847     		blx	r9
 259              	.LVL23:
 260 00a8 DFF884B0 		ldr	fp, .L19+40
 261 00ac 0246     		mov	r2, r0
 262 00ae 0B46     		mov	r3, r1
 263 00b0 2046     		mov	r0, r4
 264 00b2 2946     		mov	r1, r5
 265 00b4 D847     		blx	fp
 266              	.LVL24:
 267 00b6 14A3     		adr	r3, .L19
 268 00b8 D3E90023 		ldrd	r2, [r3]
 269 00bc DFF874A0 		ldr	sl, .L19+44
 270 00c0 D047     		blx	sl
 271              	.LVL25:
 272 00c2 13A3     		adr	r3, .L19+8
 273 00c4 D3E90023 		ldrd	r2, [r3]
 274 00c8 164D     		ldr	r5, .L19+28
 275 00ca A847     		blx	r5
 276              	.LVL26:
 277 00cc 164C     		ldr	r4, .L19+32
 278 00ce A047     		blx	r4
 279              	.LVL27:
 280 00d0 B061     		str	r0, [r6, #24]	@ float
 124:../LIB_HW/Hw_IMU.c **** 			ptr_data->Y_AccAngle = (atan2(MPU6050_Data.X_Acc, MPU6050_Data.Z_Acc)+M_PI)*RAD_TO_DEG;
 281              		.loc 1 124 0
 282 00d2 BDF91000 		ldrsh	r0, [sp, #16]
 283 00d6 C847     		blx	r9
 284              	.LVL28:
 285 00d8 CDE90001 		strd	r0, [sp]
 286 00dc BDF91400 		ldrsh	r0, [sp, #20]
 287 00e0 C847     		blx	r9
 288              	.LVL29:
 289 00e2 0246     		mov	r2, r0
 290 00e4 0B46     		mov	r3, r1
 291 00e6 DDE90001 		ldrd	r0, [sp]
 292 00ea D847     		blx	fp
 293              	.LVL30:
 294 00ec 06A3     		adr	r3, .L19
 295 00ee D3E90023 		ldrd	r2, [r3]
 296 00f2 D047     		blx	sl
 297              	.LVL31:
 298 00f4 06A3     		adr	r3, .L19+8
 299 00f6 D3E90023 		ldrd	r2, [r3]
 300 00fa A847     		blx	r5
 301              	.LVL32:
 302 00fc A047     		blx	r4
 303              	.LVL33:
 304 00fe F061     		str	r0, [r6, #28]	@ float
 305 0100 91E7     		b	.L14
 306              	.L20:
 307 0102 00BFAFF3 		.align	3
 307      0080
 308              	.L19:
 309 0108 182D4454 		.word	1413754136
 310 010c FB210940 		.word	1074340347
 311 0110 00000020 		.word	536870912
 312 0114 DCA54C40 		.word	1078765020
 313 0118 00000000 		.word	Hw_HMC5883_GetEnable
 314 011c 00000000 		.word	Hw_HMC5883_GetData
 315 0120 00000000 		.word	Hw_MPU6050_GetData
 316 0124 00000000 		.word	__aeabi_dmul
 317 0128 00000000 		.word	__aeabi_d2f
 318 012c 00000000 		.word	__aeabi_i2d
 319 0130 00000000 		.word	atan2
 320 0134 00000000 		.word	__aeabi_dadd
 321              		.cfi_endproc
 322              	.LFE2:
 324              		.section	.rodata.str1.4,"aMS",%progbits,1
 325              		.align	2
 326              	.LC0:
 327 0000 48775F4D 		.ascii	"Hw_MPU6050_Init Ret : 0x%x\012\000"
 327      50553630 
 327      35305F49 
 327      6E697420 
 327      52657420 
 328              	.LC1:
 329 001c 48775F48 		.ascii	"Hw_HMC5883_Init Ret : 0x%x\012\000"
 329      4D433538 
 329      38335F49 
 329      6E697420 
 329      52657420 
 330              		.text
 331              	.Letext0:
 332              		.file 2 "../LIB_HW/Hw_Define.h"
 333              		.file 3 "../LIB_HW/Hw_MPU6050.h"
 334              		.file 4 "../LIB_HW/Hw_HMC5883.h"
 335              		.file 5 "../LIB_HW/Hw_IMU.h"