
main.elf:     file format elf32-littlearm

Sections:
Idx Name          Size      VMA       LMA       File off  Algn
  0 .text         0000194c  08000000  08000000  00008000  2**2
                  CONTENTS, ALLOC, LOAD, READONLY, CODE
  1 .bss          00000390  20000000  20000000  00010000  2**9
                  ALLOC
  2 ._usrstack    00000100  20000390  20000390  0000994c  2**0
                  CONTENTS
  3 .debug_abbrev 00000cde  00000000  00000000  00009a4c  2**0
                  CONTENTS, READONLY, DEBUGGING
  4 .debug_info   0000193e  00000000  00000000  0000a72a  2**0
                  CONTENTS, READONLY, DEBUGGING
  5 .debug_line   00000cd9  00000000  00000000  0000c068  2**0
                  CONTENTS, READONLY, DEBUGGING
  6 .debug_loc    00001f58  00000000  00000000  0000cd41  2**0
                  CONTENTS, READONLY, DEBUGGING
  7 .debug_pubnames 0000054f  00000000  00000000  0000ec99  2**0
                  CONTENTS, READONLY, DEBUGGING
  8 .debug_pubtypes 000001da  00000000  00000000  0000f1e8  2**0
                  CONTENTS, READONLY, DEBUGGING
  9 .debug_aranges 000002f0  00000000  00000000  0000f3c2  2**0
                  CONTENTS, READONLY, DEBUGGING
 10 .debug_ranges 00000470  00000000  00000000  0000f6b2  2**0
                  CONTENTS, READONLY, DEBUGGING
 11 .debug_str    00000746  00000000  00000000  0000fb22  2**0
                  CONTENTS, READONLY, DEBUGGING
 12 .comment      0000002a  00000000  00000000  00010268  2**0
                  CONTENTS, READONLY
 13 .ARM.attributes 00000031  00000000  00000000  00010292  2**0
                  CONTENTS, READONLY
 14 .debug_frame  00000e2c  00000000  00000000  000102c4  2**2
                  CONTENTS, READONLY, DEBUGGING

Disassembly of section .text:

08000000 <g_pfnVectors>:
 8000000:	00 50 00 20 75 0e 00 08                             .P. u...

08000008 <LED_Tick>:
static void Main_Init( void );



void LED_Tick( void )
{
 8000008:	b508      	push	{r3, lr}
	Hw_Led_Toggle(0);
 800000a:	2000      	movs	r0, #0
 800000c:	4b01      	ldr	r3, [pc, #4]	; (8000014 <LED_Tick+0xc>)
 800000e:	4798      	blx	r3
}
 8000010:	bd08      	pop	{r3, pc}
 8000012:	bf00      	nop
 8000014:	0800118d 	.word	0x0800118d

08000018 <main>:
     ARG     : 	void
     RET     : 	
     			int
---------------------------------------------------------------------------*/
int main(void)
{
 8000018:	b530      	push	{r4, r5, lr}
     ARG     : void
     RET     : void
---------------------------------------------------------------------------*/
void Main_Init( void )
{
	Hw_Init();
 800001a:	4b0b      	ldr	r3, [pc, #44]	; (8000048 <main+0x30>)
     ARG     : 	void
     RET     : 	
     			int
---------------------------------------------------------------------------*/
int main(void)
{
 800001c:	b083      	sub	sp, #12
     ARG     : void
     RET     : void
---------------------------------------------------------------------------*/
void Main_Init( void )
{
	Hw_Init();
 800001e:	4798      	blx	r3
	Ap_Init();
	
	Hw_Timer_Set  ( HW_TIMER_CH_LED, 1000, LOOP_TIME, LED_Tick, NULL );
 8000020:	2400      	movs	r4, #0
     RET     : void
---------------------------------------------------------------------------*/
void Main_Init( void )
{
	Hw_Init();
	Ap_Init();
 8000022:	480a      	ldr	r0, [pc, #40]	; (800004c <main+0x34>)
 8000024:	4780      	blx	r0
	
	Hw_Timer_Set  ( HW_TIMER_CH_LED, 1000, LOOP_TIME, LED_Tick, NULL );
 8000026:	4d0a      	ldr	r5, [pc, #40]	; (8000050 <main+0x38>)
 8000028:	4b0a      	ldr	r3, [pc, #40]	; (8000054 <main+0x3c>)
 800002a:	f44f 717a 	mov.w	r1, #1000	; 0x3e8
 800002e:	2202      	movs	r2, #2
 8000030:	4620      	mov	r0, r4
 8000032:	9400      	str	r4, [sp, #0]
 8000034:	47a8      	blx	r5
	Hw_Timer_Start( HW_TIMER_CH_LED );	
 8000036:	4620      	mov	r0, r4
 8000038:	4a07      	ldr	r2, [pc, #28]	; (8000058 <main+0x40>)
 800003a:	4790      	blx	r2
	int key;

	Main_Init();
	

    printf("Radio V0.1\n");
 800003c:	4807      	ldr	r0, [pc, #28]	; (800005c <main+0x44>)
 800003e:	4908      	ldr	r1, [pc, #32]	; (8000060 <main+0x48>)
 8000040:	4788      	blx	r1


	//-- 명령어 처리
	//
	Ap_RadioMenu_ExeCmd();    
 8000042:	4b08      	ldr	r3, [pc, #32]	; (8000064 <main+0x4c>)
 8000044:	4798      	blx	r3
 8000046:	e7fe      	b.n	8000046 <main+0x2e>
 8000048:	08000f4d 	.word	0x08000f4d
 800004c:	08000069 	.word	0x08000069
 8000050:	080015a1 	.word	0x080015a1
 8000054:	08000009 	.word	0x08000009
 8000058:	080015bd 	.word	0x080015bd
 800005c:	080015e4 	.word	0x080015e4
 8000060:	0800034d 	.word	0x0800034d
 8000064:	0800012d 	.word	0x0800012d

08000068 <Ap_Init>:
     ARG     : void
     RET     : void
---------------------------------------------------------------------------*/
void Ap_Init( void )
{
}
 8000068:	4770      	bx	lr
 800006a:	bf00      	nop

0800006c <TimerDebug_Tick>:
void Ap_RadioMenu_ShowMenu(void);



void TimerDebug_Tick( void )
{
 800006c:	b508      	push	{r3, lr}
	static u32 Cnt = 0;
	
	printf("Timer Tick\n");
 800006e:	4802      	ldr	r0, [pc, #8]	; (8000078 <TimerDebug_Tick+0xc>)
 8000070:	4b02      	ldr	r3, [pc, #8]	; (800007c <TimerDebug_Tick+0x10>)
 8000072:	4798      	blx	r3
}
 8000074:	bd08      	pop	{r3, pc}
 8000076:	bf00      	nop
 8000078:	080015f0 	.word	0x080015f0
 800007c:	0800034d 	.word	0x0800034d

08000080 <Ap_RadioMenu_ShowMenu>:
     WORK    : 
     ARG     : void
     RET     : void
---------------------------------------------------------------------------*/
void Ap_RadioMenu_ShowMenu(void)
{
 8000080:	b538      	push	{r3, r4, r5, lr}
	u8 key;

	printf("\n\n");
	printf("*******************************************************\n");
 8000082:	4d11      	ldr	r5, [pc, #68]	; (80000c8 <Ap_RadioMenu_ShowMenu+0x48>)
---------------------------------------------------------------------------*/
void Ap_RadioMenu_ShowMenu(void)
{
	u8 key;

	printf("\n\n");
 8000084:	4c11      	ldr	r4, [pc, #68]	; (80000cc <Ap_RadioMenu_ShowMenu+0x4c>)
 8000086:	4812      	ldr	r0, [pc, #72]	; (80000d0 <Ap_RadioMenu_ShowMenu+0x50>)
 8000088:	47a0      	blx	r4
	printf("*******************************************************\n");
 800008a:	4628      	mov	r0, r5
 800008c:	47a0      	blx	r4
	printf("                      Radio V0.1                       \n");
 800008e:	4811      	ldr	r0, [pc, #68]	; (80000d4 <Ap_RadioMenu_ShowMenu+0x54>)
 8000090:	47a0      	blx	r4
	printf("*******************************************************\n");
 8000092:	4628      	mov	r0, r5
 8000094:	47a0      	blx	r4
	printf("* 1.  Band Select                                     *\n");
 8000096:	4810      	ldr	r0, [pc, #64]	; (80000d8 <Ap_RadioMenu_ShowMenu+0x58>)
 8000098:	47a0      	blx	r4
	printf("* 2.  CH ++                                           *\n");
 800009a:	4810      	ldr	r0, [pc, #64]	; (80000dc <Ap_RadioMenu_ShowMenu+0x5c>)
 800009c:	47a0      	blx	r4
	printf("* 3.  CH --                                           *\n");
 800009e:	4810      	ldr	r0, [pc, #64]	; (80000e0 <Ap_RadioMenu_ShowMenu+0x60>)
 80000a0:	47a0      	blx	r4
	printf("* 4.  Auto Search +                                   *\n");
 80000a2:	4810      	ldr	r0, [pc, #64]	; (80000e4 <Ap_RadioMenu_ShowMenu+0x64>)
 80000a4:	47a0      	blx	r4
	printf("* 5.  Auto Search -                                   *\n");
 80000a6:	4810      	ldr	r0, [pc, #64]	; (80000e8 <Ap_RadioMenu_ShowMenu+0x68>)
 80000a8:	47a0      	blx	r4
	printf("* 6.  Volume +                                        *\n");
 80000aa:	4810      	ldr	r0, [pc, #64]	; (80000ec <Ap_RadioMenu_ShowMenu+0x6c>)
 80000ac:	47a0      	blx	r4
	printf("* 7.  Volume -                                        *\n");
 80000ae:	4810      	ldr	r0, [pc, #64]	; (80000f0 <Ap_RadioMenu_ShowMenu+0x70>)
 80000b0:	47a0      	blx	r4
	printf("* 8.  Timer Start                                     *\n");
 80000b2:	4810      	ldr	r0, [pc, #64]	; (80000f4 <Ap_RadioMenu_ShowMenu+0x74>)
 80000b4:	47a0      	blx	r4
	printf("* 9.  Timer Stop                                      *\n");
 80000b6:	4810      	ldr	r0, [pc, #64]	; (80000f8 <Ap_RadioMenu_ShowMenu+0x78>)
 80000b8:	47a0      	blx	r4
	printf("* m.  Menu                                            *\n");
 80000ba:	4810      	ldr	r0, [pc, #64]	; (80000fc <Ap_RadioMenu_ShowMenu+0x7c>)
 80000bc:	47a0      	blx	r4
	printf("*******************************************************\n");
 80000be:	4628      	mov	r0, r5
 80000c0:	47a0      	blx	r4
	printf("\n");
 80000c2:	480f      	ldr	r0, [pc, #60]	; (8000100 <Ap_RadioMenu_ShowMenu+0x80>)
 80000c4:	47a0      	blx	r4
}
 80000c6:	bd38      	pop	{r3, r4, r5, pc}
 80000c8:	08001600 	.word	0x08001600
 80000cc:	0800034d 	.word	0x0800034d
 80000d0:	080015fc 	.word	0x080015fc
 80000d4:	0800163c 	.word	0x0800163c
 80000d8:	08001678 	.word	0x08001678
 80000dc:	080016b4 	.word	0x080016b4
 80000e0:	080016f0 	.word	0x080016f0
 80000e4:	0800172c 	.word	0x0800172c
 80000e8:	08001768 	.word	0x08001768
 80000ec:	080017a4 	.word	0x080017a4
 80000f0:	080017e0 	.word	0x080017e0
 80000f4:	0800181c 	.word	0x0800181c
 80000f8:	08001858 	.word	0x08001858
 80000fc:	08001894 	.word	0x08001894
 8000100:	08001948 	.word	0x08001948

08000104 <Ap_RadioMenu_GetCmd>:
     ARG     : void
     RET     : 
				u8 : 눌려진 메뉴키 데이터 
---------------------------------------------------------------------------*/
u8 Ap_RadioMenu_GetCmd(void)
{
 8000104:	b538      	push	{r3, r4, r5, lr}
	u8 key;

	printf("select the command number : ");
 8000106:	4805      	ldr	r0, [pc, #20]	; (800011c <Ap_RadioMenu_GetCmd+0x18>)
 8000108:	4c05      	ldr	r4, [pc, #20]	; (8000120 <Ap_RadioMenu_GetCmd+0x1c>)
 800010a:	47a0      	blx	r4

    key=get_byte();
 800010c:	4b05      	ldr	r3, [pc, #20]	; (8000124 <Ap_RadioMenu_GetCmd+0x20>)
 800010e:	4798      	blx	r3
 8000110:	4605      	mov	r5, r0
	
	printf("\n");
 8000112:	4805      	ldr	r0, [pc, #20]	; (8000128 <Ap_RadioMenu_GetCmd+0x24>)
 8000114:	47a0      	blx	r4
	
    return key;
}
 8000116:	4628      	mov	r0, r5
 8000118:	bd38      	pop	{r3, r4, r5, pc}
 800011a:	bf00      	nop
 800011c:	080018d0 	.word	0x080018d0
 8000120:	0800034d 	.word	0x0800034d
 8000124:	080010d9 	.word	0x080010d9
 8000128:	08001948 	.word	0x08001948

0800012c <Ap_RadioMenu_ExeCmd>:
     ARG     : void
     RET     : 
				u8 : 눌려진 메뉴키 데이터 
---------------------------------------------------------------------------*/
u8 Ap_RadioMenu_ExeCmd(void)
{
 800012c:	e92d 41f0 	stmdb	sp!, {r4, r5, r6, r7, r8, lr}
	u8 key;
	static u8 ExeFirst = TRUE;
	
	if( ExeFirst == TRUE )
	{
		Ap_RadioMenu_ShowMenu();	
 8000130:	4e62      	ldr	r6, [pc, #392]	; (80002bc <Ap_RadioMenu_ExeCmd+0x190>)
     ARG     : void
     RET     : 
				u8 : 눌려진 메뉴키 데이터 
---------------------------------------------------------------------------*/
u8 Ap_RadioMenu_ExeCmd(void)
{
 8000132:	b082      	sub	sp, #8
	u8 key;
	static u8 ExeFirst = TRUE;
	
	if( ExeFirst == TRUE )
	{
		Ap_RadioMenu_ShowMenu();	
 8000134:	47b0      	blx	r6
 8000136:	4c62      	ldr	r4, [pc, #392]	; (80002c0 <Ap_RadioMenu_ExeCmd+0x194>)
           		Hw_Timer_Stop( HW_TIMER_CH_DEBUG );	
	 			printf("Timer Stop\n");				
               break;

           case '0':
               printf("No.0\n");
 8000138:	4d62      	ldr	r5, [pc, #392]	; (80002c4 <Ap_RadioMenu_ExeCmd+0x198>)
               	Hw_Timer_Set  ( HW_TIMER_CH_DEBUG, 1000, LOOP_TIME, TimerDebug_Tick, NULL );
				Hw_Timer_Start( HW_TIMER_CH_DEBUG );	
               break;

           case '9':
           		Hw_Timer_Stop( HW_TIMER_CH_DEBUG );	
 800013a:	4f63      	ldr	r7, [pc, #396]	; (80002c8 <Ap_RadioMenu_ExeCmd+0x19c>)
               printf("No.7\n");
               break;  

           case '8':
	 			printf("Timer Start\n");		 			
               	Hw_Timer_Set  ( HW_TIMER_CH_DEBUG, 1000, LOOP_TIME, TimerDebug_Tick, NULL );
 800013c:	f8df 81bc 	ldr.w	r8, [pc, #444]	; 80002fc <Ap_RadioMenu_ExeCmd+0x1d0>
	if( ExeFirst == TRUE )
	{
		Ap_RadioMenu_ShowMenu();	
	}

    while( (key = Ap_RadioMenu_GetCmd()) != 0 )
 8000140:	47a0      	blx	r4
 8000142:	4603      	mov	r3, r0
 8000144:	2800      	cmp	r0, #0
 8000146:	f000 8089 	beq.w	800025c <Ap_RadioMenu_ExeCmd+0x130>
    {
        switch(key)
 800014a:	3b30      	subs	r3, #48	; 0x30
 800014c:	2b3d      	cmp	r3, #61	; 0x3d
 800014e:	d8f7      	bhi.n	8000140 <Ap_RadioMenu_ExeCmd+0x14>
 8000150:	a201      	add	r2, pc, #4	; (adr r2, 8000158 <Ap_RadioMenu_ExeCmd+0x2c>)
 8000152:	f852 f023 	ldr.w	pc, [r2, r3, lsl #2]
 8000156:	bf00      	nop
 8000158:	080002b7 	.word	0x080002b7
 800015c:	080002b1 	.word	0x080002b1
 8000160:	080002ab 	.word	0x080002ab
 8000164:	080002a5 	.word	0x080002a5
 8000168:	0800029f 	.word	0x0800029f
 800016c:	08000299 	.word	0x08000299
 8000170:	08000293 	.word	0x08000293
 8000174:	0800028d 	.word	0x0800028d
 8000178:	0800026d 	.word	0x0800026d
 800017c:	08000263 	.word	0x08000263
 8000180:	08000141 	.word	0x08000141
 8000184:	08000141 	.word	0x08000141
 8000188:	08000141 	.word	0x08000141
 800018c:	08000141 	.word	0x08000141
 8000190:	08000141 	.word	0x08000141
 8000194:	08000141 	.word	0x08000141
 8000198:	08000141 	.word	0x08000141
 800019c:	08000141 	.word	0x08000141
 80001a0:	08000141 	.word	0x08000141
 80001a4:	08000141 	.word	0x08000141
 80001a8:	08000141 	.word	0x08000141
 80001ac:	08000141 	.word	0x08000141
 80001b0:	08000141 	.word	0x08000141
 80001b4:	08000141 	.word	0x08000141
 80001b8:	08000141 	.word	0x08000141
 80001bc:	08000141 	.word	0x08000141
 80001c0:	08000141 	.word	0x08000141
 80001c4:	08000141 	.word	0x08000141
 80001c8:	08000141 	.word	0x08000141
 80001cc:	08000251 	.word	0x08000251
 80001d0:	08000141 	.word	0x08000141
 80001d4:	08000141 	.word	0x08000141
 80001d8:	08000141 	.word	0x08000141
 80001dc:	08000141 	.word	0x08000141
 80001e0:	08000141 	.word	0x08000141
 80001e4:	08000141 	.word	0x08000141
 80001e8:	08000141 	.word	0x08000141
 80001ec:	08000141 	.word	0x08000141
 80001f0:	08000141 	.word	0x08000141
 80001f4:	08000141 	.word	0x08000141
 80001f8:	08000141 	.word	0x08000141
 80001fc:	08000141 	.word	0x08000141
 8000200:	08000141 	.word	0x08000141
 8000204:	08000141 	.word	0x08000141
 8000208:	08000141 	.word	0x08000141
 800020c:	08000141 	.word	0x08000141
 8000210:	08000141 	.word	0x08000141
 8000214:	08000141 	.word	0x08000141
 8000218:	08000141 	.word	0x08000141
 800021c:	08000141 	.word	0x08000141
 8000220:	08000141 	.word	0x08000141
 8000224:	08000141 	.word	0x08000141
 8000228:	08000141 	.word	0x08000141
 800022c:	08000141 	.word	0x08000141
 8000230:	08000141 	.word	0x08000141
 8000234:	08000141 	.word	0x08000141
 8000238:	08000141 	.word	0x08000141
 800023c:	08000141 	.word	0x08000141
 8000240:	08000141 	.word	0x08000141
 8000244:	08000141 	.word	0x08000141
 8000248:	08000141 	.word	0x08000141
 800024c:	08000251 	.word	0x08000251
               printf("No.0\n");
               break;

			case 'm':
			case 'M':
				Ap_RadioMenu_ShowMenu();
 8000250:	47b0      	blx	r6
	if( ExeFirst == TRUE )
	{
		Ap_RadioMenu_ShowMenu();	
	}

    while( (key = Ap_RadioMenu_GetCmd()) != 0 )
 8000252:	47a0      	blx	r4
 8000254:	4603      	mov	r3, r0
 8000256:	2800      	cmp	r0, #0
 8000258:	f47f af77 	bne.w	800014a <Ap_RadioMenu_ExeCmd+0x1e>
               break;
        }
    }
    
    return key;
}
 800025c:	b002      	add	sp, #8
 800025e:	e8bd 81f0 	ldmia.w	sp!, {r4, r5, r6, r7, r8, pc}
               	Hw_Timer_Set  ( HW_TIMER_CH_DEBUG, 1000, LOOP_TIME, TimerDebug_Tick, NULL );
				Hw_Timer_Start( HW_TIMER_CH_DEBUG );	
               break;

           case '9':
           		Hw_Timer_Stop( HW_TIMER_CH_DEBUG );	
 8000262:	2001      	movs	r0, #1
 8000264:	47b8      	blx	r7
	 			printf("Timer Stop\n");				
 8000266:	4819      	ldr	r0, [pc, #100]	; (80002cc <Ap_RadioMenu_ExeCmd+0x1a0>)
 8000268:	47a8      	blx	r5
               break;
 800026a:	e769      	b.n	8000140 <Ap_RadioMenu_ExeCmd+0x14>
           case '7':
               printf("No.7\n");
               break;  

           case '8':
	 			printf("Timer Start\n");		 			
 800026c:	4818      	ldr	r0, [pc, #96]	; (80002d0 <Ap_RadioMenu_ExeCmd+0x1a4>)
 800026e:	47a8      	blx	r5
               	Hw_Timer_Set  ( HW_TIMER_CH_DEBUG, 1000, LOOP_TIME, TimerDebug_Tick, NULL );
 8000270:	2001      	movs	r0, #1
 8000272:	f04f 0e00 	mov.w	lr, #0
 8000276:	f44f 717a 	mov.w	r1, #1000	; 0x3e8
 800027a:	2202      	movs	r2, #2
 800027c:	4b15      	ldr	r3, [pc, #84]	; (80002d4 <Ap_RadioMenu_ExeCmd+0x1a8>)
 800027e:	f8cd e000 	str.w	lr, [sp]
 8000282:	47c0      	blx	r8
				Hw_Timer_Start( HW_TIMER_CH_DEBUG );	
 8000284:	2001      	movs	r0, #1
 8000286:	4b14      	ldr	r3, [pc, #80]	; (80002d8 <Ap_RadioMenu_ExeCmd+0x1ac>)
 8000288:	4798      	blx	r3
               break;
 800028a:	e759      	b.n	8000140 <Ap_RadioMenu_ExeCmd+0x14>
           case '6':
               printf("No.6\n");
               break;  

           case '7':
               printf("No.7\n");
 800028c:	4813      	ldr	r0, [pc, #76]	; (80002dc <Ap_RadioMenu_ExeCmd+0x1b0>)
 800028e:	47a8      	blx	r5
               break;  
 8000290:	e756      	b.n	8000140 <Ap_RadioMenu_ExeCmd+0x14>
           case '5':
               printf("No.5\n");
               break;  

           case '6':
               printf("No.6\n");
 8000292:	4813      	ldr	r0, [pc, #76]	; (80002e0 <Ap_RadioMenu_ExeCmd+0x1b4>)
 8000294:	47a8      	blx	r5
               break;  
 8000296:	e753      	b.n	8000140 <Ap_RadioMenu_ExeCmd+0x14>
           case '4':
               printf("No.4\n");           
               break;  

           case '5':
               printf("No.5\n");
 8000298:	4812      	ldr	r0, [pc, #72]	; (80002e4 <Ap_RadioMenu_ExeCmd+0x1b8>)
 800029a:	47a8      	blx	r5
               break;  
 800029c:	e750      	b.n	8000140 <Ap_RadioMenu_ExeCmd+0x14>
           case '3':
               printf("No.3\n");           
               break; 

           case '4':
               printf("No.4\n");           
 800029e:	4812      	ldr	r0, [pc, #72]	; (80002e8 <Ap_RadioMenu_ExeCmd+0x1bc>)
 80002a0:	47a8      	blx	r5
               break;  
 80002a2:	e74d      	b.n	8000140 <Ap_RadioMenu_ExeCmd+0x14>
           case '2':
               printf("No.2\n");           
               break;

           case '3':
               printf("No.3\n");           
 80002a4:	4811      	ldr	r0, [pc, #68]	; (80002ec <Ap_RadioMenu_ExeCmd+0x1c0>)
 80002a6:	47a8      	blx	r5
               break; 
 80002a8:	e74a      	b.n	8000140 <Ap_RadioMenu_ExeCmd+0x14>
           case '1':
               printf("No.1\n");           
               break;

           case '2':
               printf("No.2\n");           
 80002aa:	4811      	ldr	r0, [pc, #68]	; (80002f0 <Ap_RadioMenu_ExeCmd+0x1c4>)
 80002ac:	47a8      	blx	r5
               break;
 80002ae:	e747      	b.n	8000140 <Ap_RadioMenu_ExeCmd+0x14>
    while( (key = Ap_RadioMenu_GetCmd()) != 0 )
    {
        switch(key)
        {
           case '1':
               printf("No.1\n");           
 80002b0:	4810      	ldr	r0, [pc, #64]	; (80002f4 <Ap_RadioMenu_ExeCmd+0x1c8>)
 80002b2:	47a8      	blx	r5
               break;
 80002b4:	e744      	b.n	8000140 <Ap_RadioMenu_ExeCmd+0x14>
           		Hw_Timer_Stop( HW_TIMER_CH_DEBUG );	
	 			printf("Timer Stop\n");				
               break;

           case '0':
               printf("No.0\n");
 80002b6:	4810      	ldr	r0, [pc, #64]	; (80002f8 <Ap_RadioMenu_ExeCmd+0x1cc>)
 80002b8:	47a8      	blx	r5
               break;
 80002ba:	e741      	b.n	8000140 <Ap_RadioMenu_ExeCmd+0x14>
 80002bc:	08000081 	.word	0x08000081
 80002c0:	08000105 	.word	0x08000105
 80002c4:	0800034d 	.word	0x0800034d
 80002c8:	080015d1 	.word	0x080015d1
 80002cc:	08001938 	.word	0x08001938
 80002d0:	08001928 	.word	0x08001928
 80002d4:	0800006d 	.word	0x0800006d
 80002d8:	080015bd 	.word	0x080015bd
 80002dc:	08001920 	.word	0x08001920
 80002e0:	08001918 	.word	0x08001918
 80002e4:	08001910 	.word	0x08001910
 80002e8:	08001908 	.word	0x08001908
 80002ec:	08001900 	.word	0x08001900
 80002f0:	080018f8 	.word	0x080018f8
 80002f4:	080018f0 	.word	0x080018f0
 80002f8:	08001944 	.word	0x08001944
 80002fc:	080015a1 	.word	0x080015a1

08000300 <DecToLong>:
// 역할 : 10진수 문자열 s에서 정수를 만들어 retval이 가리키는 위치에 기록.
// 매개 : s      : 변환할 문자열의 주소.
//        retval : 변환된 값이 기록될 주소.
// 반환 : return : 1 : success                0 : failure.
// 주의 :
int DecToLong(char *s, long *retval){
 8000300:	b410      	push	{r4}
        long remainder;
        if (!s || !s[0]) return false;
 8000302:	b1e0      	cbz	r0, 800033e <DecToLong+0x3e>
 8000304:	7802      	ldrb	r2, [r0, #0]
 8000306:	b1e2      	cbz	r2, 8000342 <DecToLong+0x42>


        for (*retval=0; *s; s++){
 8000308:	2200      	movs	r2, #0
 800030a:	600a      	str	r2, [r1, #0]
 800030c:	7803      	ldrb	r3, [r0, #0]
 800030e:	b1ab      	cbz	r3, 800033c <DecToLong+0x3c>
                if (*s < '0' || *s > '9') return false;
 8000310:	f1a3 0430 	sub.w	r4, r3, #48	; 0x30
 8000314:	b2e4      	uxtb	r4, r4
 8000316:	2c09      	cmp	r4, #9
 8000318:	d902      	bls.n	8000320 <DecToLong+0x20>
 800031a:	e012      	b.n	8000342 <DecToLong+0x42>
 800031c:	2c09      	cmp	r4, #9
 800031e:	d812      	bhi.n	8000346 <DecToLong+0x46>
                remainder = *s - '0';
                *retval = *retval * 10 + remainder;
 8000320:	eb02 0282 	add.w	r2, r2, r2, lsl #2
        if (!s || !s[0]) return false;


        for (*retval=0; *s; s++){
                if (*s < '0' || *s > '9') return false;
                remainder = *s - '0';
 8000324:	eb03 0242 	add.w	r2, r3, r2, lsl #1
                *retval = *retval * 10 + remainder;
 8000328:	3a30      	subs	r2, #48	; 0x30
 800032a:	600a      	str	r2, [r1, #0]
int DecToLong(char *s, long *retval){
        long remainder;
        if (!s || !s[0]) return false;


        for (*retval=0; *s; s++){
 800032c:	f810 3f01 	ldrb.w	r3, [r0, #1]!
                if (*s < '0' || *s > '9') return false;
 8000330:	f1a3 0c30 	sub.w	ip, r3, #48	; 0x30
 8000334:	fa5f f48c 	uxtb.w	r4, ip
int DecToLong(char *s, long *retval){
        long remainder;
        if (!s || !s[0]) return false;


        for (*retval=0; *s; s++){
 8000338:	2b00      	cmp	r3, #0
 800033a:	d1ef      	bne.n	800031c <DecToLong+0x1c>
                remainder = *s - '0';
                *retval = *retval * 10 + remainder;
        }


        return true;
 800033c:	2001      	movs	r0, #1
}        // DecToLong.
 800033e:	bc10      	pop	{r4}
 8000340:	4770      	bx	lr
        long remainder;
        if (!s || !s[0]) return false;


        for (*retval=0; *s; s++){
                if (*s < '0' || *s > '9') return false;
 8000342:	4610      	mov	r0, r2
 8000344:	e7fb      	b.n	800033e <DecToLong+0x3e>
 8000346:	2000      	movs	r0, #0
 8000348:	e7f9      	b.n	800033e <DecToLong+0x3e>
 800034a:	bf00      	nop

0800034c <printf>:
// 매개 : fmt : printf()와 동일하나 "%s", "%c", "%d", "%x" 사용 가능.
//              %d, %x의 경우에는 "%08x", "%8x"와 같이 나타낼 길이와 빈 공간을 0으로 채울지 선택 가능.
// 반환 : 없음.
// 주의 : 없음.
void printf(char *fmt, ...)
{
 800034c:	b40f      	push	{r0, r1, r2, r3}
 800034e:	e92d 4ff0 	stmdb	sp!, {r4, r5, r6, r7, r8, r9, sl, fp, lr}
 8000352:	b08d      	sub	sp, #52	; 0x34
        int                i;
        va_list args;
        char        *s=fmt;
 8000354:	f10d 0858 	add.w	r8, sp, #88	; 0x58
 8000358:	f858 5b04 	ldr.w	r5, [r8], #4
        } else {
                remainder = l;


                for (divisor=1000000000; divisor>0; divisor/=10){
                        result = remainder/divisor;
 800035c:	f8df 92c4 	ldr.w	r9, [pc, #708]	; 8000624 <printf+0x2d8>
                        for (j=0; s[i]>='0' && s[i]<='9'; j++){
                                tol[j] = s[i++];
                        }
                        tol[j] = '\0';
                        i--;
                        DecToLong(tol, &flagcnt);
 8000360:	4fae      	ldr	r7, [pc, #696]	; (800061c <printf+0x2d0>)
        va_list args;
        char        *s=fmt;
        char        format[10];        // fmt의 인자가 "%08lx"라면, "08l"를 임시로 기록.
        
        va_start(args, fmt);
        while (*s){
 8000362:	7828      	ldrb	r0, [r5, #0]
 8000364:	2800      	cmp	r0, #0
 8000366:	f000 80ca 	beq.w	80004fe <printf+0x1b2>
                if (*s=='%'){
 800036a:	2825      	cmp	r0, #37	; 0x25
 800036c:	f040 80cc 	bne.w	8000508 <printf+0x1bc>
                        s++;
                        // s에서 "%08lx"형식을 가져와 format에 기록. 나중에 출력함수에 넘겨줌.
                        format[0] = '%';
 8000370:	f88d 001c 	strb.w	r0, [sp, #28]
                        for (i=1; i<10;){
                                if (*s=='c' || *s=='d' || *s=='x' || *s=='s' || *s=='%'){
 8000374:	7868      	ldrb	r0, [r5, #1]
        char        format[10];        // fmt의 인자가 "%08lx"라면, "08l"를 임시로 기록.
        
        va_start(args, fmt);
        while (*s){
                if (*s=='%'){
                        s++;
 8000376:	3501      	adds	r5, #1
                        // s에서 "%08lx"형식을 가져와 format에 기록. 나중에 출력함수에 넘겨줌.
                        format[0] = '%';
                        for (i=1; i<10;){
                                if (*s=='c' || *s=='d' || *s=='x' || *s=='s' || *s=='%'){
 8000378:	f1a0 0163 	sub.w	r1, r0, #99	; 0x63
 800037c:	b2cb      	uxtb	r3, r1
 800037e:	2b01      	cmp	r3, #1
 8000380:	f240 82fd 	bls.w	800097e <printf+0x632>
 8000384:	2873      	cmp	r0, #115	; 0x73
 8000386:	f000 82fa 	beq.w	800097e <printf+0x632>
 800038a:	2878      	cmp	r0, #120	; 0x78
 800038c:	f000 82f7 	beq.w	800097e <printf+0x632>
 8000390:	2825      	cmp	r0, #37	; 0x25
 8000392:	f000 82f4 	beq.w	800097e <printf+0x632>
                                        format[i++] = *s;
                                        format[i] = '\0';
                                        break;
                                }
                                else {
                                        format[i++] = *s++;
 8000396:	f88d 001d 	strb.w	r0, [sp, #29]
                if (*s=='%'){
                        s++;
                        // s에서 "%08lx"형식을 가져와 format에 기록. 나중에 출력함수에 넘겨줌.
                        format[0] = '%';
                        for (i=1; i<10;){
                                if (*s=='c' || *s=='d' || *s=='x' || *s=='s' || *s=='%'){
 800039a:	f815 0f01 	ldrb.w	r0, [r5, #1]!
 800039e:	f1a0 0c63 	sub.w	ip, r0, #99	; 0x63
 80003a2:	fa5f f28c 	uxtb.w	r2, ip
 80003a6:	2a01      	cmp	r2, #1
 80003a8:	f240 82f3 	bls.w	8000992 <printf+0x646>
 80003ac:	2873      	cmp	r0, #115	; 0x73
 80003ae:	f000 82f0 	beq.w	8000992 <printf+0x646>
 80003b2:	2878      	cmp	r0, #120	; 0x78
 80003b4:	f000 82ed 	beq.w	8000992 <printf+0x646>
 80003b8:	2825      	cmp	r0, #37	; 0x25
 80003ba:	f000 82ea 	beq.w	8000992 <printf+0x646>
                                        format[i++] = *s;
                                        format[i] = '\0';
                                        break;
                                }
                                else {
                                        format[i++] = *s++;
 80003be:	f88d 001e 	strb.w	r0, [sp, #30]
                if (*s=='%'){
                        s++;
                        // s에서 "%08lx"형식을 가져와 format에 기록. 나중에 출력함수에 넘겨줌.
                        format[0] = '%';
                        for (i=1; i<10;){
                                if (*s=='c' || *s=='d' || *s=='x' || *s=='s' || *s=='%'){
 80003c2:	f815 0f01 	ldrb.w	r0, [r5, #1]!
 80003c6:	f1a0 0163 	sub.w	r1, r0, #99	; 0x63
 80003ca:	b2cb      	uxtb	r3, r1
 80003cc:	2b01      	cmp	r3, #1
 80003ce:	f240 82e2 	bls.w	8000996 <printf+0x64a>
 80003d2:	2873      	cmp	r0, #115	; 0x73
 80003d4:	f000 82df 	beq.w	8000996 <printf+0x64a>
 80003d8:	2878      	cmp	r0, #120	; 0x78
 80003da:	f000 82dc 	beq.w	8000996 <printf+0x64a>
 80003de:	2825      	cmp	r0, #37	; 0x25
 80003e0:	f000 82d9 	beq.w	8000996 <printf+0x64a>
                                        format[i++] = *s;
                                        format[i] = '\0';
                                        break;
                                }
                                else {
                                        format[i++] = *s++;
 80003e4:	f88d 001f 	strb.w	r0, [sp, #31]
                if (*s=='%'){
                        s++;
                        // s에서 "%08lx"형식을 가져와 format에 기록. 나중에 출력함수에 넘겨줌.
                        format[0] = '%';
                        for (i=1; i<10;){
                                if (*s=='c' || *s=='d' || *s=='x' || *s=='s' || *s=='%'){
 80003e8:	f815 0f01 	ldrb.w	r0, [r5, #1]!
 80003ec:	f1a0 0c63 	sub.w	ip, r0, #99	; 0x63
 80003f0:	fa5f f28c 	uxtb.w	r2, ip
 80003f4:	2a01      	cmp	r2, #1
 80003f6:	f240 82d0 	bls.w	800099a <printf+0x64e>
 80003fa:	2873      	cmp	r0, #115	; 0x73
 80003fc:	f000 82cd 	beq.w	800099a <printf+0x64e>
 8000400:	2878      	cmp	r0, #120	; 0x78
 8000402:	f000 82ca 	beq.w	800099a <printf+0x64e>
 8000406:	2825      	cmp	r0, #37	; 0x25
 8000408:	f000 82c7 	beq.w	800099a <printf+0x64e>
                                        format[i++] = *s;
                                        format[i] = '\0';
                                        break;
                                }
                                else {
                                        format[i++] = *s++;
 800040c:	f88d 0020 	strb.w	r0, [sp, #32]
                if (*s=='%'){
                        s++;
                        // s에서 "%08lx"형식을 가져와 format에 기록. 나중에 출력함수에 넘겨줌.
                        format[0] = '%';
                        for (i=1; i<10;){
                                if (*s=='c' || *s=='d' || *s=='x' || *s=='s' || *s=='%'){
 8000410:	f815 0f01 	ldrb.w	r0, [r5, #1]!
 8000414:	f1a0 0163 	sub.w	r1, r0, #99	; 0x63
 8000418:	b2cb      	uxtb	r3, r1
 800041a:	2b01      	cmp	r3, #1
 800041c:	f240 82bf 	bls.w	800099e <printf+0x652>
 8000420:	2873      	cmp	r0, #115	; 0x73
 8000422:	f000 82bc 	beq.w	800099e <printf+0x652>
 8000426:	2878      	cmp	r0, #120	; 0x78
 8000428:	f000 82b9 	beq.w	800099e <printf+0x652>
 800042c:	2825      	cmp	r0, #37	; 0x25
 800042e:	f000 82b6 	beq.w	800099e <printf+0x652>
                                        format[i++] = *s;
                                        format[i] = '\0';
                                        break;
                                }
                                else {
                                        format[i++] = *s++;
 8000432:	f88d 0021 	strb.w	r0, [sp, #33]	; 0x21
                if (*s=='%'){
                        s++;
                        // s에서 "%08lx"형식을 가져와 format에 기록. 나중에 출력함수에 넘겨줌.
                        format[0] = '%';
                        for (i=1; i<10;){
                                if (*s=='c' || *s=='d' || *s=='x' || *s=='s' || *s=='%'){
 8000436:	f815 0f01 	ldrb.w	r0, [r5, #1]!
 800043a:	f1a0 0c63 	sub.w	ip, r0, #99	; 0x63
 800043e:	fa5f f28c 	uxtb.w	r2, ip
 8000442:	2a01      	cmp	r2, #1
 8000444:	f240 82ad 	bls.w	80009a2 <printf+0x656>
 8000448:	2873      	cmp	r0, #115	; 0x73
 800044a:	f000 82aa 	beq.w	80009a2 <printf+0x656>
 800044e:	2878      	cmp	r0, #120	; 0x78
 8000450:	f000 82a7 	beq.w	80009a2 <printf+0x656>
 8000454:	2825      	cmp	r0, #37	; 0x25
 8000456:	f000 82a4 	beq.w	80009a2 <printf+0x656>
                                        format[i++] = *s;
                                        format[i] = '\0';
                                        break;
                                }
                                else {
                                        format[i++] = *s++;
 800045a:	f88d 0022 	strb.w	r0, [sp, #34]	; 0x22
                if (*s=='%'){
                        s++;
                        // s에서 "%08lx"형식을 가져와 format에 기록. 나중에 출력함수에 넘겨줌.
                        format[0] = '%';
                        for (i=1; i<10;){
                                if (*s=='c' || *s=='d' || *s=='x' || *s=='s' || *s=='%'){
 800045e:	f815 0f01 	ldrb.w	r0, [r5, #1]!
 8000462:	f1a0 0163 	sub.w	r1, r0, #99	; 0x63
 8000466:	b2cb      	uxtb	r3, r1
 8000468:	2b01      	cmp	r3, #1
 800046a:	f240 829c 	bls.w	80009a6 <printf+0x65a>
 800046e:	2873      	cmp	r0, #115	; 0x73
 8000470:	f000 8299 	beq.w	80009a6 <printf+0x65a>
 8000474:	2878      	cmp	r0, #120	; 0x78
 8000476:	f000 8296 	beq.w	80009a6 <printf+0x65a>
 800047a:	2825      	cmp	r0, #37	; 0x25
 800047c:	f000 8293 	beq.w	80009a6 <printf+0x65a>
                                        format[i++] = *s;
                                        format[i] = '\0';
                                        break;
                                }
                                else {
                                        format[i++] = *s++;
 8000480:	f88d 0023 	strb.w	r0, [sp, #35]	; 0x23
                if (*s=='%'){
                        s++;
                        // s에서 "%08lx"형식을 가져와 format에 기록. 나중에 출력함수에 넘겨줌.
                        format[0] = '%';
                        for (i=1; i<10;){
                                if (*s=='c' || *s=='d' || *s=='x' || *s=='s' || *s=='%'){
 8000484:	f815 0f01 	ldrb.w	r0, [r5, #1]!
 8000488:	f1a0 0c63 	sub.w	ip, r0, #99	; 0x63
 800048c:	fa5f f28c 	uxtb.w	r2, ip
 8000490:	2a01      	cmp	r2, #1
 8000492:	f240 828a 	bls.w	80009aa <printf+0x65e>
 8000496:	2873      	cmp	r0, #115	; 0x73
 8000498:	f000 8287 	beq.w	80009aa <printf+0x65e>
 800049c:	2878      	cmp	r0, #120	; 0x78
 800049e:	f000 8284 	beq.w	80009aa <printf+0x65e>
 80004a2:	2825      	cmp	r0, #37	; 0x25
 80004a4:	f000 8281 	beq.w	80009aa <printf+0x65e>
                                        format[i++] = *s;
                                        format[i] = '\0';
                                        break;
                                }
                                else {
                                        format[i++] = *s++;
 80004a8:	f88d 0024 	strb.w	r0, [sp, #36]	; 0x24
                if (*s=='%'){
                        s++;
                        // s에서 "%08lx"형식을 가져와 format에 기록. 나중에 출력함수에 넘겨줌.
                        format[0] = '%';
                        for (i=1; i<10;){
                                if (*s=='c' || *s=='d' || *s=='x' || *s=='s' || *s=='%'){
 80004ac:	f815 0f01 	ldrb.w	r0, [r5, #1]!
 80004b0:	f1a0 0163 	sub.w	r1, r0, #99	; 0x63
 80004b4:	b2cb      	uxtb	r3, r1
 80004b6:	2b01      	cmp	r3, #1
 80004b8:	f240 844a 	bls.w	8000d50 <printf+0xa04>
 80004bc:	2873      	cmp	r0, #115	; 0x73
 80004be:	f000 8447 	beq.w	8000d50 <printf+0xa04>
 80004c2:	2878      	cmp	r0, #120	; 0x78
 80004c4:	f000 8444 	beq.w	8000d50 <printf+0xa04>
 80004c8:	2825      	cmp	r0, #37	; 0x25
 80004ca:	f000 8441 	beq.w	8000d50 <printf+0xa04>
                                        format[i++] = *s;
                                        format[i] = '\0';
                                        break;
                                }
                                else {
                                        format[i++] = *s++;
 80004ce:	f88d 0025 	strb.w	r0, [sp, #37]	; 0x25
 80004d2:	f815 0f01 	ldrb.w	r0, [r5, #1]!
                                }
                        }
                        // "%s", "%c", "%d", "%x"를 찾아 출력할 함수 호출.
                        switch (*s++){
 80004d6:	3501      	adds	r5, #1
 80004d8:	2864      	cmp	r0, #100	; 0x64
 80004da:	f000 80a5 	beq.w	8000628 <printf+0x2dc>
 80004de:	d817      	bhi.n	8000510 <printf+0x1c4>
 80004e0:	2825      	cmp	r0, #37	; 0x25
 80004e2:	f000 8088 	beq.w	80005f6 <printf+0x2aa>
 80004e6:	2863      	cmp	r0, #99	; 0x63
 80004e8:	f47f af3b 	bne.w	8000362 <printf+0x16>
                                case 'c' :
                                        PrintChar(format, va_arg(args, int));
 80004ec:	f858 0b04 	ldr.w	r0, [r8], #4
        return;
}

void PrintChar(char *fmt, char c)
{
        print_byte(c);
 80004f0:	4b4b      	ldr	r3, [pc, #300]	; (8000620 <printf+0x2d4>)
 80004f2:	b2c0      	uxtb	r0, r0
 80004f4:	4798      	blx	r3
        va_list args;
        char        *s=fmt;
        char        format[10];        // fmt의 인자가 "%08lx"라면, "08l"를 임시로 기록.
        
        va_start(args, fmt);
        while (*s){
 80004f6:	7828      	ldrb	r0, [r5, #0]
 80004f8:	2800      	cmp	r0, #0
 80004fa:	f47f af36 	bne.w	800036a <printf+0x1e>
                        s++;
                }
        }
        va_end(args);
        return;
}
 80004fe:	b00d      	add	sp, #52	; 0x34
 8000500:	e8bd 4ff0 	ldmia.w	sp!, {r4, r5, r6, r7, r8, r9, sl, fp, lr}
 8000504:	b004      	add	sp, #16
 8000506:	4770      	bx	lr

void PrintChar(char *fmt, char c)
{
        print_byte(c);
 8000508:	4945      	ldr	r1, [pc, #276]	; (8000620 <printf+0x2d4>)
 800050a:	4788      	blx	r1
                                        break;
                        }
                }
                else {
                        PrintChar("%c", *s);
                        s++;
 800050c:	3501      	adds	r5, #1
 800050e:	e728      	b.n	8000362 <printf+0x16>
                                else {
                                        format[i++] = *s++;
                                }
                        }
                        // "%s", "%c", "%d", "%x"를 찾아 출력할 함수 호출.
                        switch (*s++){
 8000510:	2873      	cmp	r0, #115	; 0x73
 8000512:	d073      	beq.n	80005fc <printf+0x2b0>
 8000514:	2878      	cmp	r0, #120	; 0x78
 8000516:	f47f af24 	bne.w	8000362 <printf+0x16>
                                        break;
                                case 'd' :
                                        PrintDec(format, va_arg(args, int));
                                        break;
                                case 'x' :
                                        PrintHex(format, va_arg(args, int));
 800051a:	f858 2b04 	ldr.w	r2, [r8], #4
        char        uHex, lHex;
        int                cnt;                                                // "%5x"의 경우 5개만 출력하도록 출력한 개수.


        // fmt의 "%08lx"에서 '0', '8', 'l'을 해석.
        for (i=0; (c=s[i]) != 0; i++){
 800051e:	f89d 301c 	ldrb.w	r3, [sp, #28]

void PrintHex(char *fmt, int l){
        int                i, j;
        char        c, *s=fmt, tol[10];
        bool        flag0=false, flagl=false;        // flags.
        long        flagcnt=0;
 8000522:	2400      	movs	r4, #0
                                        break;
                                case 'd' :
                                        PrintDec(format, va_arg(args, int));
                                        break;
                                case 'x' :
                                        PrintHex(format, va_arg(args, int));
 8000524:	920b      	str	r2, [sp, #44]	; 0x2c

void PrintHex(char *fmt, int l){
        int                i, j;
        char        c, *s=fmt, tol[10];
        bool        flag0=false, flagl=false;        // flags.
        long        flagcnt=0;
 8000526:	940a      	str	r4, [sp, #40]	; 0x28
        char        uHex, lHex;
        int                cnt;                                                // "%5x"의 경우 5개만 출력하도록 출력한 개수.


        // fmt의 "%08lx"에서 '0', '8', 'l'을 해석.
        for (i=0; (c=s[i]) != 0; i++){
 8000528:	2b00      	cmp	r3, #0
 800052a:	f000 8471 	beq.w	8000e10 <printf+0xac4>
                if (c=='x') break;
 800052e:	2b78      	cmp	r3, #120	; 0x78
 8000530:	d033      	beq.n	800059a <printf+0x24e>
 8000532:	4626      	mov	r6, r4
                else if (c>='1' && c<='9'){
                        for (j=0; s[i]>='0' && s[i]<='9'; j++){
                                tol[j] = s[i++];
                        }
                        tol[j] = '\0';
 8000534:	46a2      	mov	sl, r4


        // fmt의 "%08lx"에서 '0', '8', 'l'을 해석.
        for (i=0; (c=s[i]) != 0; i++){
                if (c=='x') break;
                else if (c>='1' && c<='9'){
 8000536:	f1a3 0131 	sub.w	r1, r3, #49	; 0x31
 800053a:	fa5f fc81 	uxtb.w	ip, r1
 800053e:	f1bc 0f08 	cmp.w	ip, #8
 8000542:	d854      	bhi.n	80005ee <printf+0x2a2>
                        for (j=0; s[i]>='0' && s[i]<='9'; j++){
 8000544:	aa0c      	add	r2, sp, #48	; 0x30
 8000546:	eb02 0e06 	add.w	lr, r2, r6
 800054a:	f81e 2c14 	ldrb.w	r2, [lr, #-20]
 800054e:	f1a2 0030 	sub.w	r0, r2, #48	; 0x30
 8000552:	b2c3      	uxtb	r3, r0
 8000554:	2b09      	cmp	r3, #9
 8000556:	f200 820f 	bhi.w	8000978 <printf+0x62c>
 800055a:	2300      	movs	r3, #0
 800055c:	a804      	add	r0, sp, #16
 800055e:	f10d 0e1c 	add.w	lr, sp, #28
                                tol[j] = s[i++];
 8000562:	3601      	adds	r6, #1
 8000564:	54c2      	strb	r2, [r0, r3]

        // fmt의 "%08lx"에서 '0', '8', 'l'을 해석.
        for (i=0; (c=s[i]) != 0; i++){
                if (c=='x') break;
                else if (c>='1' && c<='9'){
                        for (j=0; s[i]>='0' && s[i]<='9'; j++){
 8000566:	f81e 2006 	ldrb.w	r2, [lr, r6]
 800056a:	3301      	adds	r3, #1
 800056c:	f1a2 0130 	sub.w	r1, r2, #48	; 0x30
 8000570:	fa5f fc81 	uxtb.w	ip, r1
 8000574:	f1bc 0f09 	cmp.w	ip, #9
 8000578:	d9f3      	bls.n	8000562 <printf+0x216>
                                tol[j] = s[i++];
                        }
                        tol[j] = '\0';
 800057a:	f10d 0e30 	add.w	lr, sp, #48	; 0x30
 800057e:	4473      	add	r3, lr
                        i--;
                        DecToLong(tol, &flagcnt);
 8000580:	a90a      	add	r1, sp, #40	; 0x28
                if (c=='x') break;
                else if (c>='1' && c<='9'){
                        for (j=0; s[i]>='0' && s[i]<='9'; j++){
                                tol[j] = s[i++];
                        }
                        tol[j] = '\0';
 8000582:	f803 ac20 	strb.w	sl, [r3, #-32]
                        i--;
 8000586:	3e01      	subs	r6, #1
                        DecToLong(tol, &flagcnt);
 8000588:	47b8      	blx	r7
        char        uHex, lHex;
        int                cnt;                                                // "%5x"의 경우 5개만 출력하도록 출력한 개수.


        // fmt의 "%08lx"에서 '0', '8', 'l'을 해석.
        for (i=0; (c=s[i]) != 0; i++){
 800058a:	3601      	adds	r6, #1
 800058c:	aa0c      	add	r2, sp, #48	; 0x30
 800058e:	1990      	adds	r0, r2, r6
 8000590:	f810 3c14 	ldrb.w	r3, [r0, #-20]
 8000594:	b10b      	cbz	r3, 800059a <printf+0x24e>
                if (c=='x') break;
 8000596:	2b78      	cmp	r3, #120	; 0x78
 8000598:	d1cd      	bne.n	8000536 <printf+0x1ea>
                else continue;
        }


        s = (char *)(&l);
        l = SWAP32(l);                // little, big endian에 따라서.(big이 출력하기 쉬워 순서를 바꿈)
 800059a:	9b0b      	ldr	r3, [sp, #44]	; 0x2c
        
        // 위의 flag에 따라 출력.
        if (flagcnt){
 800059c:	9a0a      	ldr	r2, [sp, #40]	; 0x28
                else continue;
        }


        s = (char *)(&l);
        l = SWAP32(l);                // little, big endian에 따라서.(big이 출력하기 쉬워 순서를 바꿈)
 800059e:	f403 007f 	and.w	r0, r3, #16711680	; 0xff0000
 80005a2:	f403 4c7f 	and.w	ip, r3, #65280	; 0xff00
 80005a6:	1201      	asrs	r1, r0, #8
 80005a8:	ea41 200c 	orr.w	r0, r1, ip, lsl #8
 80005ac:	ea40 6c03 	orr.w	ip, r0, r3, lsl #24
 80005b0:	ea4c 6113 	orr.w	r1, ip, r3, lsr #24
 80005b4:	910b      	str	r1, [sp, #44]	; 0x2c
        
        // 위의 flag에 따라 출력.
        if (flagcnt){
 80005b6:	2a00      	cmp	r2, #0
 80005b8:	f000 80df 	beq.w	800077a <printf+0x42e>
                if (flagcnt&0x01){        // flagcnt가 홀수 일때, upper를 무시, lower만 출력.
 80005bc:	f012 0f01 	tst.w	r2, #1
 80005c0:	f000 8297 	beq.w	8000af2 <printf+0x7a6>
                        c = s[(8-(flagcnt+1))/2]; // 홀수 일때 그 위치를 포함하는 곳의 값을 가져 옵니다.
 80005c4:	43d0      	mvns	r0, r2
 80005c6:	3008      	adds	r0, #8
 80005c8:	eb00 71d0 	add.w	r1, r0, r0, lsr #31
 80005cc:	104a      	asrs	r2, r1, #1
                        
                        // lower 4 bits를 가져와서 ascii code로.
                        lHex = ((c>>0)&0x0f);
 80005ce:	ab0b      	add	r3, sp, #44	; 0x2c
 80005d0:	f813 e002 	ldrb.w	lr, [r3, r2]
                        if (lHex!=0) leading_zero=false;
 80005d4:	f01e 030f 	ands.w	r3, lr, #15
 80005d8:	f000 83d3 	beq.w	8000d82 <printf+0xa36>
                        if (lHex<10) lHex+='0';
 80005dc:	2b09      	cmp	r3, #9
 80005de:	f240 8438 	bls.w	8000e52 <printf+0xb06>
                        else         lHex+='A'-10;
 80005e2:	3337      	adds	r3, #55	; 0x37
                        // lower 4 bits 출력.
                        if (leading_zero){
                                if (flag0) print_byte('0');
                                else       print_byte(' ');
                        }
                        else print_byte(lHex);
 80005e4:	490e      	ldr	r1, [pc, #56]	; (8000620 <printf+0x2d4>)
 80005e6:	4618      	mov	r0, r3
 80005e8:	4788      	blx	r1
 80005ea:	2100      	movs	r1, #0
 80005ec:	e3cf      	b.n	8000d8e <printf+0xa42>
                        }
                        tol[j] = '\0';
                        i--;
                        DecToLong(tol, &flagcnt);
                }
                else if (c=='0') flag0=true;
 80005ee:	2b30      	cmp	r3, #48	; 0x30
 80005f0:	bf08      	it	eq
 80005f2:	2401      	moveq	r4, #1
 80005f4:	e7c9      	b.n	800058a <printf+0x23e>
        return;
}

void PrintChar(char *fmt, char c)
{
        print_byte(c);
 80005f6:	4b0a      	ldr	r3, [pc, #40]	; (8000620 <printf+0x2d4>)
 80005f8:	4798      	blx	r3
                                case 's' :
                                        PrintString(format, va_arg(args, char *));
                                        break;
                                case '%' :
                                        PrintChar("%c", '%');
                                        break;
 80005fa:	e6b2      	b.n	8000362 <printf+0x16>
                                        break;
                                case 'x' :
                                        PrintHex(format, va_arg(args, int));
                                        break;
                                case 's' :
                                        PrintString(format, va_arg(args, char *));
 80005fc:	f858 4b04 	ldr.w	r4, [r8], #4
        return;
}

void PrintString(char *fmt, char *s)
{
        if (!fmt || !s) return;
 8000600:	2c00      	cmp	r4, #0
 8000602:	f43f aeae 	beq.w	8000362 <printf+0x16>
        while (*s) print_byte(*s++);
 8000606:	7820      	ldrb	r0, [r4, #0]
 8000608:	2800      	cmp	r0, #0
 800060a:	f43f aeaa 	beq.w	8000362 <printf+0x16>
 800060e:	4e04      	ldr	r6, [pc, #16]	; (8000620 <printf+0x2d4>)
 8000610:	47b0      	blx	r6
 8000612:	f814 0f01 	ldrb.w	r0, [r4, #1]!
 8000616:	2800      	cmp	r0, #0
 8000618:	d1fa      	bne.n	8000610 <printf+0x2c4>
 800061a:	e6a2      	b.n	8000362 <printf+0x16>
 800061c:	08000301 	.word	0x08000301
 8000620:	080010a9 	.word	0x080010a9
 8000624:	66666667 	.word	0x66666667
        bool        leading_zero=true;                        // long형의 data를 출력하기 위한 변수.
        long        divisor, result, remainder;


        // fmt의 "%08lx"에서 '0', '8', 'l'을 해석.
        for (i=0; (c=s[i]) != 0; i++){
 8000628:	f89d 301c 	ldrb.w	r3, [sp, #28]
void PrintDec(char *fmt, int l)
{
        int        i, j;
        char        c, *s=fmt, tol[10];
        bool        flag0=false, flagl=false;	// "%08lx"에서 '0', 'l'의 존재 여부.
        long        flagcnt=0;                                        // "%08lx"에서 "8"을 찾아서 long형으로.
 800062c:	2600      	movs	r6, #0
                        switch (*s++){
                                case 'c' :
                                        PrintChar(format, va_arg(args, int));
                                        break;
                                case 'd' :
                                        PrintDec(format, va_arg(args, int));
 800062e:	f858 bb04 	ldr.w	fp, [r8], #4
void PrintDec(char *fmt, int l)
{
        int        i, j;
        char        c, *s=fmt, tol[10];
        bool        flag0=false, flagl=false;	// "%08lx"에서 '0', 'l'의 존재 여부.
        long        flagcnt=0;                                        // "%08lx"에서 "8"을 찾아서 long형으로.
 8000632:	960a      	str	r6, [sp, #40]	; 0x28
        bool        leading_zero=true;                        // long형의 data를 출력하기 위한 변수.
        long        divisor, result, remainder;


        // fmt의 "%08lx"에서 '0', '8', 'l'을 해석.
        for (i=0; (c=s[i]) != 0; i++){
 8000634:	2b00      	cmp	r3, #0
 8000636:	f000 80f3 	beq.w	8000820 <printf+0x4d4>
                if (c=='d') break;
 800063a:	2b64      	cmp	r3, #100	; 0x64
 800063c:	f000 80f0 	beq.w	8000820 <printf+0x4d4>
 8000640:	4634      	mov	r4, r6
                else if (c>='1' && c<='9'){
                        for (j=0; s[i]>='0' && s[i]<='9'; j++){
                                tol[j] = s[i++];
                        }
                        tol[j] = '\0';
 8000642:	46b2      	mov	sl, r6


        // fmt의 "%08lx"에서 '0', '8', 'l'을 해석.
        for (i=0; (c=s[i]) != 0; i++){
                if (c=='d') break;
                else if (c>='1' && c<='9'){
 8000644:	f1a3 0231 	sub.w	r2, r3, #49	; 0x31
 8000648:	fa5f fe82 	uxtb.w	lr, r2
 800064c:	f1be 0f08 	cmp.w	lr, #8
 8000650:	f200 808f 	bhi.w	8000772 <printf+0x426>
                        for (j=0; s[i]>='0' && s[i]<='9'; j++){
 8000654:	a80c      	add	r0, sp, #48	; 0x30
 8000656:	1903      	adds	r3, r0, r4
 8000658:	f813 2c14 	ldrb.w	r2, [r3, #-20]
 800065c:	f1a2 0130 	sub.w	r1, r2, #48	; 0x30
 8000660:	fa5f fc81 	uxtb.w	ip, r1
 8000664:	f1bc 0f09 	cmp.w	ip, #9
 8000668:	f200 8183 	bhi.w	8000972 <printf+0x626>
 800066c:	2300      	movs	r3, #0
 800066e:	a804      	add	r0, sp, #16
 8000670:	f10d 0e1c 	add.w	lr, sp, #28
                                tol[j] = s[i++];
 8000674:	3401      	adds	r4, #1
 8000676:	54c2      	strb	r2, [r0, r3]

        // fmt의 "%08lx"에서 '0', '8', 'l'을 해석.
        for (i=0; (c=s[i]) != 0; i++){
                if (c=='d') break;
                else if (c>='1' && c<='9'){
                        for (j=0; s[i]>='0' && s[i]<='9'; j++){
 8000678:	f81e 2004 	ldrb.w	r2, [lr, r4]
 800067c:	3301      	adds	r3, #1
 800067e:	f1a2 0130 	sub.w	r1, r2, #48	; 0x30
 8000682:	fa5f fc81 	uxtb.w	ip, r1
 8000686:	f1bc 0f09 	cmp.w	ip, #9
 800068a:	d9f3      	bls.n	8000674 <printf+0x328>
                                tol[j] = s[i++];
                        }
                        tol[j] = '\0';
 800068c:	aa0c      	add	r2, sp, #48	; 0x30
 800068e:	eb02 0e03 	add.w	lr, r2, r3
                        i--;
                        DecToLong(tol, &flagcnt);
 8000692:	a90a      	add	r1, sp, #40	; 0x28
                if (c=='d') break;
                else if (c>='1' && c<='9'){
                        for (j=0; s[i]>='0' && s[i]<='9'; j++){
                                tol[j] = s[i++];
                        }
                        tol[j] = '\0';
 8000694:	f80e ac20 	strb.w	sl, [lr, #-32]
                        i--;
 8000698:	3c01      	subs	r4, #1
                        DecToLong(tol, &flagcnt);
 800069a:	47b8      	blx	r7
        bool        leading_zero=true;                        // long형의 data를 출력하기 위한 변수.
        long        divisor, result, remainder;


        // fmt의 "%08lx"에서 '0', '8', 'l'을 해석.
        for (i=0; (c=s[i]) != 0; i++){
 800069c:	3401      	adds	r4, #1
 800069e:	a80c      	add	r0, sp, #48	; 0x30
 80006a0:	1903      	adds	r3, r0, r4
 80006a2:	f813 3c14 	ldrb.w	r3, [r3, #-20]
 80006a6:	b10b      	cbz	r3, 80006ac <printf+0x360>
                if (c=='d') break;
 80006a8:	2b64      	cmp	r3, #100	; 0x64
 80006aa:	d1cb      	bne.n	8000644 <printf+0x2f8>
                else continue;
        }


        // 위의 flag에 따라 출력.
        if (flagcnt){
 80006ac:	990a      	ldr	r1, [sp, #40]	; 0x28
 80006ae:	2900      	cmp	r1, #0
 80006b0:	f000 80b6 	beq.w	8000820 <printf+0x4d4>
                if (flagcnt>9) flagcnt=9;
 80006b4:	2909      	cmp	r1, #9
 80006b6:	f340 82dd 	ble.w	8000c74 <printf+0x928>
 80006ba:	2009      	movs	r0, #9
 80006bc:	2407      	movs	r4, #7
 80006be:	900a      	str	r0, [sp, #40]	; 0x28
 80006c0:	2106      	movs	r1, #6
{
        long retval=num;
        cnt--;


        while (cnt--){
 80006c2:	4620      	mov	r0, r4
 80006c4:	f000 0e01 	and.w	lr, r0, #1
                retval *= num;
 80006c8:	2364      	movs	r3, #100	; 0x64
{
        long retval=num;
        cnt--;


        while (cnt--){
 80006ca:	1e42      	subs	r2, r0, #1
 80006cc:	b190      	cbz	r0, 80006f4 <printf+0x3a8>
 80006ce:	f1be 0f00 	cmp.w	lr, #0
 80006d2:	d005      	beq.n	80006e0 <printf+0x394>
 80006d4:	3a01      	subs	r2, #1
 80006d6:	f1b2 3fff 	cmp.w	r2, #4294967295
                retval *= num;
 80006da:	f44f 737a 	mov.w	r3, #1000	; 0x3e8
{
        long retval=num;
        cnt--;


        while (cnt--){
 80006de:	d009      	beq.n	80006f4 <printf+0x3a8>
                retval *= num;
 80006e0:	eb03 0383 	add.w	r3, r3, r3, lsl #2
 80006e4:	00d8      	lsls	r0, r3, #3
 80006e6:	eb00 0343 	add.w	r3, r0, r3, lsl #1
{
        long retval=num;
        cnt--;


        while (cnt--){
 80006ea:	3a02      	subs	r2, #2
                retval *= num;
 80006ec:	005b      	lsls	r3, r3, #1
{
        long retval=num;
        cnt--;


        while (cnt--){
 80006ee:	f1b2 3fff 	cmp.w	r2, #4294967295
 80006f2:	d1f5      	bne.n	80006e0 <printf+0x394>


        // 위의 flag에 따라 출력.
        if (flagcnt){
                if (flagcnt>9) flagcnt=9;
                remainder = l%(Power(10, flagcnt));        // flagcnt보다 윗자리의 수는 걸러냄. 199에 flagcnt==2이면, 99만.
 80006f4:	fb9b faf3 	sdiv	sl, fp, r3
 80006f8:	fb03 bb1a 	mls	fp, r3, sl, fp
{
        long retval=num;
        cnt--;


        while (cnt--){
 80006fc:	2c00      	cmp	r4, #0
 80006fe:	f000 8385 	beq.w	8000e0c <printf+0xac0>
 8000702:	f001 0201 	and.w	r2, r1, #1
                retval *= num;
 8000706:	2464      	movs	r4, #100	; 0x64
{
        long retval=num;
        cnt--;


        while (cnt--){
 8000708:	1e4b      	subs	r3, r1, #1
 800070a:	b181      	cbz	r1, 800072e <printf+0x3e2>
 800070c:	b12a      	cbz	r2, 800071a <printf+0x3ce>
 800070e:	3b01      	subs	r3, #1
 8000710:	f1b3 3fff 	cmp.w	r3, #4294967295
                retval *= num;
 8000714:	f44f 747a 	mov.w	r4, #1000	; 0x3e8
{
        long retval=num;
        cnt--;


        while (cnt--){
 8000718:	d009      	beq.n	800072e <printf+0x3e2>
                retval *= num;
 800071a:	eb04 0184 	add.w	r1, r4, r4, lsl #2
 800071e:	00ca      	lsls	r2, r1, #3
 8000720:	eb02 0441 	add.w	r4, r2, r1, lsl #1
{
        long retval=num;
        cnt--;


        while (cnt--){
 8000724:	3b02      	subs	r3, #2
                retval *= num;
 8000726:	0064      	lsls	r4, r4, #1
{
        long retval=num;
        cnt--;


        while (cnt--){
 8000728:	f1b3 3fff 	cmp.w	r3, #4294967295
 800072c:	d1f5      	bne.n	800071a <printf+0x3ce>
        return;
}

int Power(int num, int cnt)
{
        long retval=num;
 800072e:	2301      	movs	r3, #1
 8000730:	f8df a27c 	ldr.w	sl, [pc, #636]	; 80009b0 <printf+0x664>
 8000734:	9503      	str	r5, [sp, #12]
 8000736:	4635      	mov	r5, r6
 8000738:	461e      	mov	r6, r3
                if (flagcnt>9) flagcnt=9;
                remainder = l%(Power(10, flagcnt));        // flagcnt보다 윗자리의 수는 걸러냄. 199에 flagcnt==2이면, 99만.


                for (divisor=Power(10, flagcnt-1); divisor>0; divisor/=10){
                        result = remainder/divisor;
 800073a:	fb9b f1f4 	sdiv	r1, fp, r4

                        if (leading_zero==true){
                                if (flag0)        print_byte('0');
                                else                print_byte(' ');
                        }
                        else print_byte((char)(result)+'0');
 800073e:	b2c8      	uxtb	r0, r1
 8000740:	3030      	adds	r0, #48	; 0x30
                remainder = l%(Power(10, flagcnt));        // flagcnt보다 윗자리의 수는 걸러냄. 199에 flagcnt==2이면, 99만.


                for (divisor=Power(10, flagcnt-1); divisor>0; divisor/=10){
                        result = remainder/divisor;
                        remainder %= divisor;
 8000742:	fb04 bb11 	mls	fp, r4, r1, fp


                        if (result!=0 || divisor==1) leading_zero = false;
 8000746:	2900      	cmp	r1, #0
 8000748:	f040 8110 	bne.w	800096c <printf+0x620>
 800074c:	2c01      	cmp	r4, #1
 800074e:	f000 810d 	beq.w	800096c <printf+0x620>


                        if (leading_zero==true){
 8000752:	2e00      	cmp	r6, #0
 8000754:	f000 810a 	beq.w	800096c <printf+0x620>
                                if (flag0)        print_byte('0');
 8000758:	2030      	movs	r0, #48	; 0x30
 800075a:	b905      	cbnz	r5, 800075e <printf+0x412>
                                else                print_byte(' ');
 800075c:	2020      	movs	r0, #32
 800075e:	47d0      	blx	sl
        if (flagcnt){
                if (flagcnt>9) flagcnt=9;
                remainder = l%(Power(10, flagcnt));        // flagcnt보다 윗자리의 수는 걸러냄. 199에 flagcnt==2이면, 99만.


                for (divisor=Power(10, flagcnt-1); divisor>0; divisor/=10){
 8000760:	fb89 0e04 	smull	r0, lr, r9, r4
 8000764:	17e0      	asrs	r0, r4, #31
 8000766:	ebc0 04ae 	rsb	r4, r0, lr, asr #2
 800076a:	2c00      	cmp	r4, #0
 800076c:	dce5      	bgt.n	800073a <printf+0x3ee>
 800076e:	9d03      	ldr	r5, [sp, #12]
 8000770:	e5f7      	b.n	8000362 <printf+0x16>
                        }
                        tol[j] = '\0';
                        i--;
                        DecToLong(tol, &flagcnt);
                }
                else if (c=='0') flag0=true;
 8000772:	2b30      	cmp	r3, #48	; 0x30
 8000774:	bf08      	it	eq
 8000776:	2601      	moveq	r6, #1
 8000778:	e790      	b.n	800069c <printf+0x350>
                        else print_byte(lHex);
                }
        }
        else {
                for (i=0; i<4; i++){
                        c = s[i];
 800077a:	f89d 202c 	ldrb.w	r2, [sp, #44]	; 0x2c
                        uHex = ((c>>4)&0x0f);
                        lHex = ((c>>0)&0x0f);


                        // upper 4 bits and lower 4 bits to '0'~'9', 'A'~'F'.
                        if (uHex!=0) leading_zero = false;
 800077e:	0913      	lsrs	r3, r2, #4
                for (i=0; i<4; i++){
                        c = s[i];
        
                        // get upper 4 bits and lower 4 bits.
                        uHex = ((c>>4)&0x0f);
                        lHex = ((c>>0)&0x0f);
 8000780:	f002 040f 	and.w	r4, r2, #15


                        // upper 4 bits and lower 4 bits to '0'~'9', 'A'~'F'.
                        if (uHex!=0) leading_zero = false;
 8000784:	f040 82dc 	bne.w	8000d40 <printf+0x9f4>
 8000788:	4e89      	ldr	r6, [pc, #548]	; (80009b0 <printf+0x664>)
 800078a:	2301      	movs	r3, #1
                        if (uHex<10) uHex+='0';
                        else         uHex+='A'-10;
                        if (!leading_zero) print_byte(uHex);
                        
                        if (lHex!=0 || i==3) leading_zero = false;
 800078c:	2c00      	cmp	r4, #0
 800078e:	f040 8291 	bne.w	8000cb4 <printf+0x968>
                        if (lHex<10) lHex+='0';
                        else         lHex+='A'-10;
                        if (!leading_zero) print_byte(lHex);
 8000792:	2b00      	cmp	r3, #0
 8000794:	f000 8345 	beq.w	8000e22 <printf+0xad6>
                        else print_byte(lHex);
                }
        }
        else {
                for (i=0; i<4; i++){
                        c = s[i];
 8000798:	f89d c02d 	ldrb.w	ip, [sp, #45]	; 0x2d
                        if (!leading_zero) print_byte(uHex);
                        
                        if (lHex!=0 || i==3) leading_zero = false;
                        if (lHex<10) lHex+='0';
                        else         lHex+='A'-10;
                        if (!leading_zero) print_byte(lHex);
 800079c:	2201      	movs	r2, #1
                        uHex = ((c>>4)&0x0f);
                        lHex = ((c>>0)&0x0f);


                        // upper 4 bits and lower 4 bits to '0'~'9', 'A'~'F'.
                        if (uHex!=0) leading_zero = false;
 800079e:	ea5f 131c 	movs.w	r3, ip, lsr #4
                for (i=0; i<4; i++){
                        c = s[i];
        
                        // get upper 4 bits and lower 4 bits.
                        uHex = ((c>>4)&0x0f);
                        lHex = ((c>>0)&0x0f);
 80007a2:	f00c 040f 	and.w	r4, ip, #15


                        // upper 4 bits and lower 4 bits to '0'~'9', 'A'~'F'.
                        if (uHex!=0) leading_zero = false;
 80007a6:	f000 8294 	beq.w	8000cd2 <printf+0x986>
                        if (uHex<10) uHex+='0';
 80007aa:	2b09      	cmp	r3, #9
 80007ac:	f240 835c 	bls.w	8000e68 <printf+0xb1c>
                        else         uHex+='A'-10;
 80007b0:	f103 0037 	add.w	r0, r3, #55	; 0x37
                        if (!leading_zero) print_byte(uHex);
 80007b4:	47b0      	blx	r6
 80007b6:	2300      	movs	r3, #0
                        
                        if (lHex!=0 || i==3) leading_zero = false;
 80007b8:	2c00      	cmp	r4, #0
 80007ba:	f040 8291 	bne.w	8000ce0 <printf+0x994>
                        if (lHex<10) lHex+='0';
                        else         lHex+='A'-10;
                        if (!leading_zero) print_byte(lHex);
 80007be:	2b00      	cmp	r3, #0
 80007c0:	f000 8332 	beq.w	8000e28 <printf+0xadc>
                        else print_byte(lHex);
                }
        }
        else {
                for (i=0; i<4; i++){
                        c = s[i];
 80007c4:	f89d e02e 	ldrb.w	lr, [sp, #46]	; 0x2e
                        if (!leading_zero) print_byte(uHex);
                        
                        if (lHex!=0 || i==3) leading_zero = false;
                        if (lHex<10) lHex+='0';
                        else         lHex+='A'-10;
                        if (!leading_zero) print_byte(lHex);
 80007c8:	2201      	movs	r2, #1
                        uHex = ((c>>4)&0x0f);
                        lHex = ((c>>0)&0x0f);


                        // upper 4 bits and lower 4 bits to '0'~'9', 'A'~'F'.
                        if (uHex!=0) leading_zero = false;
 80007ca:	ea5f 131e 	movs.w	r3, lr, lsr #4
                for (i=0; i<4; i++){
                        c = s[i];
        
                        // get upper 4 bits and lower 4 bits.
                        uHex = ((c>>4)&0x0f);
                        lHex = ((c>>0)&0x0f);
 80007ce:	f00e 040f 	and.w	r4, lr, #15


                        // upper 4 bits and lower 4 bits to '0'~'9', 'A'~'F'.
                        if (uHex!=0) leading_zero = false;
 80007d2:	f000 8294 	beq.w	8000cfe <printf+0x9b2>
                        if (uHex<10) uHex+='0';
 80007d6:	2b09      	cmp	r3, #9
 80007d8:	f240 8329 	bls.w	8000e2e <printf+0xae2>
                        else         uHex+='A'-10;
 80007dc:	f103 0037 	add.w	r0, r3, #55	; 0x37
                        if (!leading_zero) print_byte(uHex);
 80007e0:	47b0      	blx	r6
 80007e2:	2300      	movs	r3, #0
                        
                        if (lHex!=0 || i==3) leading_zero = false;
 80007e4:	2c00      	cmp	r4, #0
 80007e6:	f040 8291 	bne.w	8000d0c <printf+0x9c0>
                        if (lHex<10) lHex+='0';
                        else         lHex+='A'-10;
                        if (!leading_zero) print_byte(lHex);
 80007ea:	2b00      	cmp	r3, #0
 80007ec:	f000 8322 	beq.w	8000e34 <printf+0xae8>
                        else print_byte(lHex);
                }
        }
        else {
                for (i=0; i<4; i++){
                        c = s[i];
 80007f0:	f89d 002f 	ldrb.w	r0, [sp, #47]	; 0x2f
                        if (!leading_zero) print_byte(uHex);
                        
                        if (lHex!=0 || i==3) leading_zero = false;
                        if (lHex<10) lHex+='0';
                        else         lHex+='A'-10;
                        if (!leading_zero) print_byte(lHex);
 80007f4:	2201      	movs	r2, #1
                        uHex = ((c>>4)&0x0f);
                        lHex = ((c>>0)&0x0f);


                        // upper 4 bits and lower 4 bits to '0'~'9', 'A'~'F'.
                        if (uHex!=0) leading_zero = false;
 80007f6:	0903      	lsrs	r3, r0, #4
                for (i=0; i<4; i++){
                        c = s[i];
        
                        // get upper 4 bits and lower 4 bits.
                        uHex = ((c>>4)&0x0f);
                        lHex = ((c>>0)&0x0f);
 80007f8:	f000 040f 	and.w	r4, r0, #15


                        // upper 4 bits and lower 4 bits to '0'~'9', 'A'~'F'.
                        if (uHex!=0) leading_zero = false;
 80007fc:	f000 8294 	beq.w	8000d28 <printf+0x9dc>
                        if (uHex<10) uHex+='0';
 8000800:	2b09      	cmp	r3, #9
 8000802:	f240 8294 	bls.w	8000d2e <printf+0x9e2>
                        else         uHex+='A'-10;
 8000806:	f103 0037 	add.w	r0, r3, #55	; 0x37
                        if (!leading_zero) print_byte(uHex);
 800080a:	47b0      	blx	r6
                        
                        if (lHex!=0 || i==3) leading_zero = false;
 800080c:	2c00      	cmp	r4, #0
 800080e:	f000 8292 	beq.w	8000d36 <printf+0x9ea>
                        if (lHex<10) lHex+='0';
 8000812:	2c09      	cmp	r4, #9
 8000814:	f240 828f 	bls.w	8000d36 <printf+0x9ea>
                        else         lHex+='A'-10;
 8000818:	f104 0037 	add.w	r0, r4, #55	; 0x37
                        if (!leading_zero) print_byte(lHex);
 800081c:	47b0      	blx	r6
 800081e:	e5a0      	b.n	8000362 <printf+0x16>
        } else {
                remainder = l;


                for (divisor=1000000000; divisor>0; divisor/=10){
                        result = remainder/divisor;
 8000820:	4964      	ldr	r1, [pc, #400]	; (80009b4 <printf+0x668>)
 8000822:	ea4f 76eb 	mov.w	r6, fp, asr #31
 8000826:	fb81 3c0b 	smull	r3, ip, r1, fp
                        remainder %= divisor;
 800082a:	4c63      	ldr	r4, [pc, #396]	; (80009b8 <printf+0x66c>)
        } else {
                remainder = l;


                for (divisor=1000000000; divisor>0; divisor/=10){
                        result = remainder/divisor;
 800082c:	ebc6 732c 	rsb	r3, r6, ip, asr #28
                        remainder %= divisor;
 8000830:	fb04 bb13 	mls	fp, r4, r3, fp


                        if (result!=0 || divisor==1) leading_zero = false;
 8000834:	2b00      	cmp	r3, #0
 8000836:	f000 80d7 	beq.w	80009e8 <printf+0x69c>
                        if (leading_zero==false) print_byte((char)(result)+'0');
 800083a:	fa5f fe83 	uxtb.w	lr, r3
        } else {
                remainder = l;


                for (divisor=1000000000; divisor>0; divisor/=10){
                        result = remainder/divisor;
 800083e:	4e5f      	ldr	r6, [pc, #380]	; (80009bc <printf+0x670>)
                        remainder %= divisor;


                        if (result!=0 || divisor==1) leading_zero = false;
                        if (leading_zero==false) print_byte((char)(result)+'0');
 8000840:	f10e 0030 	add.w	r0, lr, #48	; 0x30
 8000844:	4c5a      	ldr	r4, [pc, #360]	; (80009b0 <printf+0x664>)
 8000846:	47a0      	blx	r4
        } else {
                remainder = l;


                for (divisor=1000000000; divisor>0; divisor/=10){
                        result = remainder/divisor;
 8000848:	fb86 600b 	smull	r6, r0, r6, fp
 800084c:	ea4f 73eb 	mov.w	r3, fp, asr #31
                        remainder %= divisor;
 8000850:	4a5b      	ldr	r2, [pc, #364]	; (80009c0 <printf+0x674>)
        } else {
                remainder = l;


                for (divisor=1000000000; divisor>0; divisor/=10){
                        result = remainder/divisor;
 8000852:	ebc3 6360 	rsb	r3, r3, r0, asr #25
                        remainder %= divisor;


                        if (result!=0 || divisor==1) leading_zero = false;
                        if (leading_zero==false) print_byte((char)(result)+'0');
 8000856:	2100      	movs	r1, #0
                remainder = l;


                for (divisor=1000000000; divisor>0; divisor/=10){
                        result = remainder/divisor;
                        remainder %= divisor;
 8000858:	fb02 b613 	mls	r6, r2, r3, fp


                        if (result!=0 || divisor==1) leading_zero = false;
 800085c:	2b00      	cmp	r3, #0
 800085e:	f000 80d2 	beq.w	8000a06 <printf+0x6ba>
                        if (leading_zero==false) print_byte((char)(result)+'0');
 8000862:	fa5f fc83 	uxtb.w	ip, r3
 8000866:	f10c 0030 	add.w	r0, ip, #48	; 0x30
 800086a:	47a0      	blx	r4
        } else {
                remainder = l;


                for (divisor=1000000000; divisor>0; divisor/=10){
                        result = remainder/divisor;
 800086c:	4855      	ldr	r0, [pc, #340]	; (80009c4 <printf+0x678>)
 800086e:	17f3      	asrs	r3, r6, #31
 8000870:	fb80 0e06 	smull	r0, lr, r0, r6
                        remainder %= divisor;
 8000874:	4a54      	ldr	r2, [pc, #336]	; (80009c8 <printf+0x67c>)
        } else {
                remainder = l;


                for (divisor=1000000000; divisor>0; divisor/=10){
                        result = remainder/divisor;
 8000876:	ebc3 53ae 	rsb	r3, r3, lr, asr #22
                        remainder %= divisor;


                        if (result!=0 || divisor==1) leading_zero = false;
                        if (leading_zero==false) print_byte((char)(result)+'0');
 800087a:	2100      	movs	r1, #0
                remainder = l;


                for (divisor=1000000000; divisor>0; divisor/=10){
                        result = remainder/divisor;
                        remainder %= divisor;
 800087c:	fb02 6613 	mls	r6, r2, r3, r6


                        if (result!=0 || divisor==1) leading_zero = false;
 8000880:	2b00      	cmp	r3, #0
 8000882:	f000 80d0 	beq.w	8000a26 <printf+0x6da>
                        if (leading_zero==false) print_byte((char)(result)+'0');
 8000886:	b2d9      	uxtb	r1, r3
 8000888:	f101 0030 	add.w	r0, r1, #48	; 0x30
 800088c:	47a0      	blx	r4
        } else {
                remainder = l;


                for (divisor=1000000000; divisor>0; divisor/=10){
                        result = remainder/divisor;
 800088e:	484f      	ldr	r0, [pc, #316]	; (80009cc <printf+0x680>)
 8000890:	17f3      	asrs	r3, r6, #31
 8000892:	fb80 0c06 	smull	r0, ip, r0, r6
                        remainder %= divisor;
 8000896:	4a4e      	ldr	r2, [pc, #312]	; (80009d0 <printf+0x684>)
        } else {
                remainder = l;


                for (divisor=1000000000; divisor>0; divisor/=10){
                        result = remainder/divisor;
 8000898:	ebc3 43ac 	rsb	r3, r3, ip, asr #18
                        remainder %= divisor;


                        if (result!=0 || divisor==1) leading_zero = false;
                        if (leading_zero==false) print_byte((char)(result)+'0');
 800089c:	2100      	movs	r1, #0
                remainder = l;


                for (divisor=1000000000; divisor>0; divisor/=10){
                        result = remainder/divisor;
                        remainder %= divisor;
 800089e:	fb02 6613 	mls	r6, r2, r3, r6


                        if (result!=0 || divisor==1) leading_zero = false;
 80008a2:	2b00      	cmp	r3, #0
 80008a4:	f000 80cf 	beq.w	8000a46 <printf+0x6fa>
                        if (leading_zero==false) print_byte((char)(result)+'0');
 80008a8:	fa5f fe83 	uxtb.w	lr, r3
 80008ac:	f10e 0030 	add.w	r0, lr, #48	; 0x30
 80008b0:	47a0      	blx	r4
        } else {
                remainder = l;


                for (divisor=1000000000; divisor>0; divisor/=10){
                        result = remainder/divisor;
 80008b2:	4848      	ldr	r0, [pc, #288]	; (80009d4 <printf+0x688>)
 80008b4:	17f3      	asrs	r3, r6, #31
 80008b6:	fb80 0c06 	smull	r0, ip, r0, r6
                        remainder %= divisor;
 80008ba:	4a47      	ldr	r2, [pc, #284]	; (80009d8 <printf+0x68c>)
        } else {
                remainder = l;


                for (divisor=1000000000; divisor>0; divisor/=10){
                        result = remainder/divisor;
 80008bc:	ebc3 336c 	rsb	r3, r3, ip, asr #13
                        remainder %= divisor;


                        if (result!=0 || divisor==1) leading_zero = false;
                        if (leading_zero==false) print_byte((char)(result)+'0');
 80008c0:	2100      	movs	r1, #0
                remainder = l;


                for (divisor=1000000000; divisor>0; divisor/=10){
                        result = remainder/divisor;
                        remainder %= divisor;
 80008c2:	fb02 6613 	mls	r6, r2, r3, r6


                        if (result!=0 || divisor==1) leading_zero = false;
 80008c6:	2b00      	cmp	r3, #0
 80008c8:	f000 80cd 	beq.w	8000a66 <printf+0x71a>
                        if (leading_zero==false) print_byte((char)(result)+'0');
 80008cc:	b2d9      	uxtb	r1, r3
 80008ce:	f101 0030 	add.w	r0, r1, #48	; 0x30
 80008d2:	47a0      	blx	r4
        } else {
                remainder = l;


                for (divisor=1000000000; divisor>0; divisor/=10){
                        result = remainder/divisor;
 80008d4:	4841      	ldr	r0, [pc, #260]	; (80009dc <printf+0x690>)
 80008d6:	17f3      	asrs	r3, r6, #31
 80008d8:	fb80 0206 	smull	r0, r2, r0, r6
                        remainder %= divisor;
 80008dc:	f242 7e10 	movw	lr, #10000	; 0x2710
        } else {
                remainder = l;


                for (divisor=1000000000; divisor>0; divisor/=10){
                        result = remainder/divisor;
 80008e0:	ebc3 3322 	rsb	r3, r3, r2, asr #12
                        remainder %= divisor;


                        if (result!=0 || divisor==1) leading_zero = false;
                        if (leading_zero==false) print_byte((char)(result)+'0');
 80008e4:	2100      	movs	r1, #0
                remainder = l;


                for (divisor=1000000000; divisor>0; divisor/=10){
                        result = remainder/divisor;
                        remainder %= divisor;
 80008e6:	fb0e 6613 	mls	r6, lr, r3, r6


                        if (result!=0 || divisor==1) leading_zero = false;
 80008ea:	2b00      	cmp	r3, #0
 80008ec:	f000 80cc 	beq.w	8000a88 <printf+0x73c>
                        if (leading_zero==false) print_byte((char)(result)+'0');
 80008f0:	fa5f fc83 	uxtb.w	ip, r3
 80008f4:	f10c 0030 	add.w	r0, ip, #48	; 0x30
 80008f8:	47a0      	blx	r4
        } else {
                remainder = l;


                for (divisor=1000000000; divisor>0; divisor/=10){
                        result = remainder/divisor;
 80008fa:	4839      	ldr	r0, [pc, #228]	; (80009e0 <printf+0x694>)
 80008fc:	17f3      	asrs	r3, r6, #31
 80008fe:	fb80 0206 	smull	r0, r2, r0, r6
                        remainder %= divisor;
 8000902:	f44f 7e7a 	mov.w	lr, #1000	; 0x3e8
        } else {
                remainder = l;


                for (divisor=1000000000; divisor>0; divisor/=10){
                        result = remainder/divisor;
 8000906:	ebc3 13a2 	rsb	r3, r3, r2, asr #6
                        remainder %= divisor;


                        if (result!=0 || divisor==1) leading_zero = false;
                        if (leading_zero==false) print_byte((char)(result)+'0');
 800090a:	2100      	movs	r1, #0
                remainder = l;


                for (divisor=1000000000; divisor>0; divisor/=10){
                        result = remainder/divisor;
                        remainder %= divisor;
 800090c:	fb0e 6613 	mls	r6, lr, r3, r6


                        if (result!=0 || divisor==1) leading_zero = false;
 8000910:	2b00      	cmp	r3, #0
 8000912:	f000 80ca 	beq.w	8000aaa <printf+0x75e>
                        if (leading_zero==false) print_byte((char)(result)+'0');
 8000916:	b2d9      	uxtb	r1, r3
 8000918:	f101 0030 	add.w	r0, r1, #48	; 0x30
 800091c:	47a0      	blx	r4
        } else {
                remainder = l;


                for (divisor=1000000000; divisor>0; divisor/=10){
                        result = remainder/divisor;
 800091e:	4831      	ldr	r0, [pc, #196]	; (80009e4 <printf+0x698>)
 8000920:	17f3      	asrs	r3, r6, #31
 8000922:	fb80 0c06 	smull	r0, ip, r0, r6
                        remainder %= divisor;
 8000926:	2264      	movs	r2, #100	; 0x64
        } else {
                remainder = l;


                for (divisor=1000000000; divisor>0; divisor/=10){
                        result = remainder/divisor;
 8000928:	ebc3 136c 	rsb	r3, r3, ip, asr #5
                        remainder %= divisor;


                        if (result!=0 || divisor==1) leading_zero = false;
                        if (leading_zero==false) print_byte((char)(result)+'0');
 800092c:	2100      	movs	r1, #0
                remainder = l;


                for (divisor=1000000000; divisor>0; divisor/=10){
                        result = remainder/divisor;
                        remainder %= divisor;
 800092e:	fb02 6613 	mls	r6, r2, r3, r6


                        if (result!=0 || divisor==1) leading_zero = false;
 8000932:	2b00      	cmp	r3, #0
 8000934:	f000 80c9 	beq.w	8000aca <printf+0x77e>
                        if (leading_zero==false) print_byte((char)(result)+'0');
 8000938:	fa5f fe83 	uxtb.w	lr, r3
 800093c:	f10e 0030 	add.w	r0, lr, #48	; 0x30
 8000940:	47a0      	blx	r4
        } else {
                remainder = l;


                for (divisor=1000000000; divisor>0; divisor/=10){
                        result = remainder/divisor;
 8000942:	fb89 3c06 	smull	r3, ip, r9, r6
 8000946:	17f3      	asrs	r3, r6, #31
 8000948:	ebc3 03ac 	rsb	r3, r3, ip, asr #2
                        remainder %= divisor;
 800094c:	eb03 0283 	add.w	r2, r3, r3, lsl #2


                        if (result!=0 || divisor==1) leading_zero = false;
                        if (leading_zero==false) print_byte((char)(result)+'0');
 8000950:	2100      	movs	r1, #0
                remainder = l;


                for (divisor=1000000000; divisor>0; divisor/=10){
                        result = remainder/divisor;
                        remainder %= divisor;
 8000952:	eba6 0642 	sub.w	r6, r6, r2, lsl #1


                        if (result!=0 || divisor==1) leading_zero = false;
 8000956:	2b00      	cmp	r3, #0
 8000958:	f000 80c7 	beq.w	8000aea <printf+0x79e>
                        if (leading_zero==false) print_byte((char)(result)+'0');
 800095c:	b2d9      	uxtb	r1, r3
 800095e:	f101 0030 	add.w	r0, r1, #48	; 0x30
 8000962:	47a0      	blx	r4
 8000964:	b2f0      	uxtb	r0, r6
 8000966:	3030      	adds	r0, #48	; 0x30
 8000968:	47a0      	blx	r4
 800096a:	e4fa      	b.n	8000362 <printf+0x16>

                        if (leading_zero==true){
                                if (flag0)        print_byte('0');
                                else                print_byte(' ');
                        }
                        else print_byte((char)(result)+'0');
 800096c:	47d0      	blx	sl
 800096e:	2600      	movs	r6, #0
 8000970:	e6f6      	b.n	8000760 <printf+0x414>

        // fmt의 "%08lx"에서 '0', '8', 'l'을 해석.
        for (i=0; (c=s[i]) != 0; i++){
                if (c=='d') break;
                else if (c>='1' && c<='9'){
                        for (j=0; s[i]>='0' && s[i]<='9'; j++){
 8000972:	2300      	movs	r3, #0
 8000974:	a804      	add	r0, sp, #16
 8000976:	e689      	b.n	800068c <printf+0x340>

        // fmt의 "%08lx"에서 '0', '8', 'l'을 해석.
        for (i=0; (c=s[i]) != 0; i++){
                if (c=='x') break;
                else if (c>='1' && c<='9'){
                        for (j=0; s[i]>='0' && s[i]<='9'; j++){
 8000978:	2300      	movs	r3, #0
 800097a:	a804      	add	r0, sp, #16
 800097c:	e5fd      	b.n	800057a <printf+0x22e>
        while (*s){
                if (*s=='%'){
                        s++;
                        // s에서 "%08lx"형식을 가져와 format에 기록. 나중에 출력함수에 넘겨줌.
                        format[0] = '%';
                        for (i=1; i<10;){
 800097e:	2301      	movs	r3, #1
                                if (*s=='c' || *s=='d' || *s=='x' || *s=='s' || *s=='%'){
                                        format[i++] = *s;
 8000980:	a90c      	add	r1, sp, #48	; 0x30
 8000982:	eb01 0c03 	add.w	ip, r1, r3
                                        format[i] = '\0';
 8000986:	2200      	movs	r2, #0
                        s++;
                        // s에서 "%08lx"형식을 가져와 format에 기록. 나중에 출력함수에 넘겨줌.
                        format[0] = '%';
                        for (i=1; i<10;){
                                if (*s=='c' || *s=='d' || *s=='x' || *s=='s' || *s=='%'){
                                        format[i++] = *s;
 8000988:	f80c 0c14 	strb.w	r0, [ip, #-20]
                                        format[i] = '\0';
 800098c:	f80c 2c13 	strb.w	r2, [ip, #-19]
                                        break;
 8000990:	e5a1      	b.n	80004d6 <printf+0x18a>
                                }
                                else {
                                        format[i++] = *s++;
 8000992:	2302      	movs	r3, #2
 8000994:	e7f4      	b.n	8000980 <printf+0x634>
 8000996:	2303      	movs	r3, #3
 8000998:	e7f2      	b.n	8000980 <printf+0x634>
 800099a:	2304      	movs	r3, #4
 800099c:	e7f0      	b.n	8000980 <printf+0x634>
 800099e:	2305      	movs	r3, #5
 80009a0:	e7ee      	b.n	8000980 <printf+0x634>
 80009a2:	2306      	movs	r3, #6
 80009a4:	e7ec      	b.n	8000980 <printf+0x634>
 80009a6:	2307      	movs	r3, #7
 80009a8:	e7ea      	b.n	8000980 <printf+0x634>
 80009aa:	2308      	movs	r3, #8
 80009ac:	e7e8      	b.n	8000980 <printf+0x634>
 80009ae:	bf00      	nop
 80009b0:	080010a9 	.word	0x080010a9
 80009b4:	44b82fa1 	.word	0x44b82fa1
 80009b8:	3b9aca00 	.word	0x3b9aca00
 80009bc:	55e63b89 	.word	0x55e63b89
 80009c0:	05f5e100 	.word	0x05f5e100
 80009c4:	6b5fca6b 	.word	0x6b5fca6b
 80009c8:	00989680 	.word	0x00989680
 80009cc:	431bde83 	.word	0x431bde83
 80009d0:	000f4240 	.word	0x000f4240
 80009d4:	14f8b589 	.word	0x14f8b589
 80009d8:	000186a0 	.word	0x000186a0
 80009dc:	68db8bad 	.word	0x68db8bad
 80009e0:	10624dd3 	.word	0x10624dd3
 80009e4:	51eb851f 	.word	0x51eb851f
        } else {
                remainder = l;


                for (divisor=1000000000; divisor>0; divisor/=10){
                        result = remainder/divisor;
 80009e8:	4ea6      	ldr	r6, [pc, #664]	; (8000c84 <printf+0x938>)
 80009ea:	ea4f 73eb 	mov.w	r3, fp, asr #31
 80009ee:	fb86 600b 	smull	r6, r0, r6, fp
                        remainder %= divisor;
 80009f2:	4aa5      	ldr	r2, [pc, #660]	; (8000c88 <printf+0x93c>)
        } else {
                remainder = l;


                for (divisor=1000000000; divisor>0; divisor/=10){
                        result = remainder/divisor;
 80009f4:	ebc3 6360 	rsb	r3, r3, r0, asr #25
 80009f8:	4ca4      	ldr	r4, [pc, #656]	; (8000c8c <printf+0x940>)
                        remainder %= divisor;


                        if (result!=0 || divisor==1) leading_zero = false;
 80009fa:	2101      	movs	r1, #1
                remainder = l;


                for (divisor=1000000000; divisor>0; divisor/=10){
                        result = remainder/divisor;
                        remainder %= divisor;
 80009fc:	fb02 b613 	mls	r6, r2, r3, fp


                        if (result!=0 || divisor==1) leading_zero = false;
 8000a00:	2b00      	cmp	r3, #0
 8000a02:	f47f af2e 	bne.w	8000862 <printf+0x516>
                        if (leading_zero==false) print_byte((char)(result)+'0');
 8000a06:	2900      	cmp	r1, #0
 8000a08:	f43f af2b 	beq.w	8000862 <printf+0x516>
        } else {
                remainder = l;


                for (divisor=1000000000; divisor>0; divisor/=10){
                        result = remainder/divisor;
 8000a0c:	48a0      	ldr	r0, [pc, #640]	; (8000c90 <printf+0x944>)
 8000a0e:	17f3      	asrs	r3, r6, #31
 8000a10:	fb80 0e06 	smull	r0, lr, r0, r6
                        remainder %= divisor;
 8000a14:	4a9f      	ldr	r2, [pc, #636]	; (8000c94 <printf+0x948>)
        } else {
                remainder = l;


                for (divisor=1000000000; divisor>0; divisor/=10){
                        result = remainder/divisor;
 8000a16:	ebc3 53ae 	rsb	r3, r3, lr, asr #22
                        remainder %= divisor;


                        if (result!=0 || divisor==1) leading_zero = false;
                        if (leading_zero==false) print_byte((char)(result)+'0');
 8000a1a:	2101      	movs	r1, #1
                remainder = l;


                for (divisor=1000000000; divisor>0; divisor/=10){
                        result = remainder/divisor;
                        remainder %= divisor;
 8000a1c:	fb02 6613 	mls	r6, r2, r3, r6


                        if (result!=0 || divisor==1) leading_zero = false;
 8000a20:	2b00      	cmp	r3, #0
 8000a22:	f47f af30 	bne.w	8000886 <printf+0x53a>
                        if (leading_zero==false) print_byte((char)(result)+'0');
 8000a26:	2900      	cmp	r1, #0
 8000a28:	f43f af2d 	beq.w	8000886 <printf+0x53a>
        } else {
                remainder = l;


                for (divisor=1000000000; divisor>0; divisor/=10){
                        result = remainder/divisor;
 8000a2c:	489a      	ldr	r0, [pc, #616]	; (8000c98 <printf+0x94c>)
 8000a2e:	17f3      	asrs	r3, r6, #31
 8000a30:	fb80 0c06 	smull	r0, ip, r0, r6
                        remainder %= divisor;
 8000a34:	4a99      	ldr	r2, [pc, #612]	; (8000c9c <printf+0x950>)
        } else {
                remainder = l;


                for (divisor=1000000000; divisor>0; divisor/=10){
                        result = remainder/divisor;
 8000a36:	ebc3 43ac 	rsb	r3, r3, ip, asr #18
                        remainder %= divisor;


                        if (result!=0 || divisor==1) leading_zero = false;
                        if (leading_zero==false) print_byte((char)(result)+'0');
 8000a3a:	2101      	movs	r1, #1
                remainder = l;


                for (divisor=1000000000; divisor>0; divisor/=10){
                        result = remainder/divisor;
                        remainder %= divisor;
 8000a3c:	fb02 6613 	mls	r6, r2, r3, r6


                        if (result!=0 || divisor==1) leading_zero = false;
 8000a40:	2b00      	cmp	r3, #0
 8000a42:	f47f af31 	bne.w	80008a8 <printf+0x55c>
                        if (leading_zero==false) print_byte((char)(result)+'0');
 8000a46:	2900      	cmp	r1, #0
 8000a48:	f43f af2e 	beq.w	80008a8 <printf+0x55c>
        } else {
                remainder = l;


                for (divisor=1000000000; divisor>0; divisor/=10){
                        result = remainder/divisor;
 8000a4c:	4894      	ldr	r0, [pc, #592]	; (8000ca0 <printf+0x954>)
 8000a4e:	17f3      	asrs	r3, r6, #31
 8000a50:	fb80 0c06 	smull	r0, ip, r0, r6
                        remainder %= divisor;
 8000a54:	4a93      	ldr	r2, [pc, #588]	; (8000ca4 <printf+0x958>)
        } else {
                remainder = l;


                for (divisor=1000000000; divisor>0; divisor/=10){
                        result = remainder/divisor;
 8000a56:	ebc3 336c 	rsb	r3, r3, ip, asr #13
                        remainder %= divisor;


                        if (result!=0 || divisor==1) leading_zero = false;
                        if (leading_zero==false) print_byte((char)(result)+'0');
 8000a5a:	2101      	movs	r1, #1
                remainder = l;


                for (divisor=1000000000; divisor>0; divisor/=10){
                        result = remainder/divisor;
                        remainder %= divisor;
 8000a5c:	fb02 6613 	mls	r6, r2, r3, r6


                        if (result!=0 || divisor==1) leading_zero = false;
 8000a60:	2b00      	cmp	r3, #0
 8000a62:	f47f af33 	bne.w	80008cc <printf+0x580>
                        if (leading_zero==false) print_byte((char)(result)+'0');
 8000a66:	2900      	cmp	r1, #0
 8000a68:	f43f af30 	beq.w	80008cc <printf+0x580>
        } else {
                remainder = l;


                for (divisor=1000000000; divisor>0; divisor/=10){
                        result = remainder/divisor;
 8000a6c:	488e      	ldr	r0, [pc, #568]	; (8000ca8 <printf+0x95c>)
 8000a6e:	17f3      	asrs	r3, r6, #31
 8000a70:	fb80 0206 	smull	r0, r2, r0, r6
                        remainder %= divisor;
 8000a74:	f242 7e10 	movw	lr, #10000	; 0x2710
        } else {
                remainder = l;


                for (divisor=1000000000; divisor>0; divisor/=10){
                        result = remainder/divisor;
 8000a78:	ebc3 3322 	rsb	r3, r3, r2, asr #12
                        remainder %= divisor;


                        if (result!=0 || divisor==1) leading_zero = false;
                        if (leading_zero==false) print_byte((char)(result)+'0');
 8000a7c:	2101      	movs	r1, #1
                remainder = l;


                for (divisor=1000000000; divisor>0; divisor/=10){
                        result = remainder/divisor;
                        remainder %= divisor;
 8000a7e:	fb0e 6613 	mls	r6, lr, r3, r6


                        if (result!=0 || divisor==1) leading_zero = false;
 8000a82:	2b00      	cmp	r3, #0
 8000a84:	f47f af34 	bne.w	80008f0 <printf+0x5a4>
                        if (leading_zero==false) print_byte((char)(result)+'0');
 8000a88:	2900      	cmp	r1, #0
 8000a8a:	f43f af31 	beq.w	80008f0 <printf+0x5a4>
        } else {
                remainder = l;


                for (divisor=1000000000; divisor>0; divisor/=10){
                        result = remainder/divisor;
 8000a8e:	4887      	ldr	r0, [pc, #540]	; (8000cac <printf+0x960>)
 8000a90:	17f3      	asrs	r3, r6, #31
 8000a92:	fb80 0206 	smull	r0, r2, r0, r6
                        remainder %= divisor;
 8000a96:	f44f 7e7a 	mov.w	lr, #1000	; 0x3e8
        } else {
                remainder = l;


                for (divisor=1000000000; divisor>0; divisor/=10){
                        result = remainder/divisor;
 8000a9a:	ebc3 13a2 	rsb	r3, r3, r2, asr #6
                        remainder %= divisor;


                        if (result!=0 || divisor==1) leading_zero = false;
                        if (leading_zero==false) print_byte((char)(result)+'0');
 8000a9e:	2101      	movs	r1, #1
                remainder = l;


                for (divisor=1000000000; divisor>0; divisor/=10){
                        result = remainder/divisor;
                        remainder %= divisor;
 8000aa0:	fb0e 6613 	mls	r6, lr, r3, r6


                        if (result!=0 || divisor==1) leading_zero = false;
 8000aa4:	2b00      	cmp	r3, #0
 8000aa6:	f47f af36 	bne.w	8000916 <printf+0x5ca>
                        if (leading_zero==false) print_byte((char)(result)+'0');
 8000aaa:	2900      	cmp	r1, #0
 8000aac:	f43f af33 	beq.w	8000916 <printf+0x5ca>
        } else {
                remainder = l;


                for (divisor=1000000000; divisor>0; divisor/=10){
                        result = remainder/divisor;
 8000ab0:	487f      	ldr	r0, [pc, #508]	; (8000cb0 <printf+0x964>)
 8000ab2:	17f3      	asrs	r3, r6, #31
 8000ab4:	fb80 0c06 	smull	r0, ip, r0, r6
                        remainder %= divisor;
 8000ab8:	2264      	movs	r2, #100	; 0x64
        } else {
                remainder = l;


                for (divisor=1000000000; divisor>0; divisor/=10){
                        result = remainder/divisor;
 8000aba:	ebc3 136c 	rsb	r3, r3, ip, asr #5
                        remainder %= divisor;


                        if (result!=0 || divisor==1) leading_zero = false;
                        if (leading_zero==false) print_byte((char)(result)+'0');
 8000abe:	2101      	movs	r1, #1
                remainder = l;


                for (divisor=1000000000; divisor>0; divisor/=10){
                        result = remainder/divisor;
                        remainder %= divisor;
 8000ac0:	fb02 6613 	mls	r6, r2, r3, r6


                        if (result!=0 || divisor==1) leading_zero = false;
 8000ac4:	2b00      	cmp	r3, #0
 8000ac6:	f47f af37 	bne.w	8000938 <printf+0x5ec>
                        if (leading_zero==false) print_byte((char)(result)+'0');
 8000aca:	2900      	cmp	r1, #0
 8000acc:	f43f af34 	beq.w	8000938 <printf+0x5ec>
        } else {
                remainder = l;


                for (divisor=1000000000; divisor>0; divisor/=10){
                        result = remainder/divisor;
 8000ad0:	fb89 3c06 	smull	r3, ip, r9, r6
 8000ad4:	17f3      	asrs	r3, r6, #31
 8000ad6:	ebc3 03ac 	rsb	r3, r3, ip, asr #2
                        remainder %= divisor;
 8000ada:	eb03 0283 	add.w	r2, r3, r3, lsl #2


                        if (result!=0 || divisor==1) leading_zero = false;
                        if (leading_zero==false) print_byte((char)(result)+'0');
 8000ade:	2101      	movs	r1, #1
                remainder = l;


                for (divisor=1000000000; divisor>0; divisor/=10){
                        result = remainder/divisor;
                        remainder %= divisor;
 8000ae0:	eba6 0642 	sub.w	r6, r6, r2, lsl #1


                        if (result!=0 || divisor==1) leading_zero = false;
 8000ae4:	2b00      	cmp	r3, #0
 8000ae6:	f47f af39 	bne.w	800095c <printf+0x610>
                        if (leading_zero==false) print_byte((char)(result)+'0');
 8000aea:	2900      	cmp	r1, #0
 8000aec:	f47f af3a 	bne.w	8000964 <printf+0x618>
 8000af0:	e734      	b.n	800095c <printf+0x610>
void PrintHex(char *fmt, int l){
        int                i, j;
        char        c, *s=fmt, tol[10];
        bool        flag0=false, flagl=false;        // flags.
        long        flagcnt=0;
        bool        leading_zero=true;
 8000af2:	2101      	movs	r1, #1
                        flagcnt--;
                }


                // byte단위의 data를 Hex로 출력.
                for (cnt=0, i=(8-flagcnt)/2; i<4; i++){
 8000af4:	f1c2 0c08 	rsb	ip, r2, #8
 8000af8:	eb0c 72dc 	add.w	r2, ip, ip, lsr #31
 8000afc:	1052      	asrs	r2, r2, #1
 8000afe:	2a03      	cmp	r2, #3
 8000b00:	f73f ac2f 	bgt.w	8000362 <printf+0x16>
// 역할 : printf() 중 일부를 간단하게 구현.
// 매개 : fmt : printf()와 동일하나 "%s", "%c", "%d", "%x" 사용 가능.
//              %d, %x의 경우에는 "%08x", "%8x"와 같이 나타낼 길이와 빈 공간을 0으로 채울지 선택 가능.
// 반환 : 없음.
// 주의 : 없음.
void printf(char *fmt, ...)
 8000b04:	f10d 0b2c 	add.w	fp, sp, #44	; 0x2c
 8000b08:	eb0b 0302 	add.w	r3, fp, r2
                }


                // byte단위의 data를 Hex로 출력.
                for (cnt=0, i=(8-flagcnt)/2; i<4; i++){
                        c = s[i];
 8000b0c:	f81b e002 	ldrb.w	lr, [fp, r2]
 8000b10:	43d8      	mvns	r0, r3
 8000b12:	f000 0601 	and.w	r6, r0, #1
 8000b16:	9603      	str	r6, [sp, #12]
 8000b18:	1c5e      	adds	r6, r3, #1
                        lHex = ((c>>0)&0x0f);


                        // upper 4 bits and lower 4 bits to '0'~'9', 'A'~'F'.
                        // upper 4 bits를 ascii code로.
                        if (uHex!=0) leading_zero = false;
 8000b1a:	ea5f 101e 	movs.w	r0, lr, lsr #4
// 역할 : printf() 중 일부를 간단하게 구현.
// 매개 : fmt : printf()와 동일하나 "%s", "%c", "%d", "%x" 사용 가능.
//              %d, %x의 경우에는 "%08x", "%8x"와 같이 나타낼 길이와 빈 공간을 0으로 채울지 선택 가능.
// 반환 : 없음.
// 주의 : 없음.
void printf(char *fmt, ...)
 8000b1e:	f10d 0b30 	add.w	fp, sp, #48	; 0x30
 8000b22:	f8df a168 	ldr.w	sl, [pc, #360]	; 8000c8c <printf+0x940>
                for (cnt=0, i=(8-flagcnt)/2; i<4; i++){
                        c = s[i];
                                
                        // get upper 4 bits and lower 4 bits.
                        uHex = ((c>>4)&0x0f);
                        lHex = ((c>>0)&0x0f);
 8000b26:	f00e 020f 	and.w	r2, lr, #15


                        // upper 4 bits and lower 4 bits to '0'~'9', 'A'~'F'.
                        // upper 4 bits를 ascii code로.
                        if (uHex!=0) leading_zero = false;
 8000b2a:	f040 8113 	bne.w	8000d54 <printf+0xa08>
                        if (uHex<10) uHex+='0';
                        else         uHex+='A'-10;


                        // upper 4 bits 출력.
                        if (leading_zero){
 8000b2e:	2900      	cmp	r1, #0
 8000b30:	f000 8198 	beq.w	8000e64 <printf+0xb18>
                                if (flag0) print_byte('0');
 8000b34:	2c00      	cmp	r4, #0
 8000b36:	f040 8154 	bne.w	8000de2 <printf+0xa96>
                                else       print_byte(' ');
 8000b3a:	2020      	movs	r0, #32
                        else         uHex+='A'-10;


                        // upper 4 bits 출력.
                        if (leading_zero){
                                if (flag0) print_byte('0');
 8000b3c:	9202      	str	r2, [sp, #8]
 8000b3e:	9301      	str	r3, [sp, #4]
 8000b40:	47d0      	blx	sl
 8000b42:	9a02      	ldr	r2, [sp, #8]
 8000b44:	2101      	movs	r1, #1
 8000b46:	9b01      	ldr	r3, [sp, #4]
                                else       print_byte(' ');
                        }
                        else print_byte(uHex);
                        
                        // lower 4 bits를 ascii code로.
                        if (lHex!=0) leading_zero = false;
 8000b48:	2a00      	cmp	r2, #0
 8000b4a:	f000 8110 	beq.w	8000d6e <printf+0xa22>
                        if (lHex<10) lHex+='0';
 8000b4e:	2a09      	cmp	r2, #9
 8000b50:	f240 8185 	bls.w	8000e5e <printf+0xb12>
                        else         lHex+='A'-10;
 8000b54:	f102 0037 	add.w	r0, r2, #55	; 0x37
                        // lower 4 bits 출력.
                        if (leading_zero){
                                if (flag0) print_byte('0');
                                else       print_byte(' ');
                        }
                        else print_byte(lHex);
 8000b58:	9301      	str	r3, [sp, #4]
 8000b5a:	47d0      	blx	sl
 8000b5c:	9b01      	ldr	r3, [sp, #4]
 8000b5e:	2200      	movs	r2, #0
                        flagcnt--;
                }


                // byte단위의 data를 Hex로 출력.
                for (cnt=0, i=(8-flagcnt)/2; i<4; i++){
 8000b60:	455e      	cmp	r6, fp
 8000b62:	f43f abfe 	beq.w	8000362 <printf+0x16>
 8000b66:	9803      	ldr	r0, [sp, #12]
 8000b68:	b1f0      	cbz	r0, 8000ba8 <printf+0x85c>
                        c = s[i];
 8000b6a:	f893 c001 	ldrb.w	ip, [r3, #1]
 8000b6e:	3601      	adds	r6, #1
                        lHex = ((c>>0)&0x0f);


                        // upper 4 bits and lower 4 bits to '0'~'9', 'A'~'F'.
                        // upper 4 bits를 ascii code로.
                        if (uHex!=0) leading_zero = false;
 8000b70:	ea5f 111c 	movs.w	r1, ip, lsr #4
                for (cnt=0, i=(8-flagcnt)/2; i<4; i++){
                        c = s[i];
                                
                        // get upper 4 bits and lower 4 bits.
                        uHex = ((c>>4)&0x0f);
                        lHex = ((c>>0)&0x0f);
 8000b74:	f00c 030f 	and.w	r3, ip, #15


                        // upper 4 bits and lower 4 bits to '0'~'9', 'A'~'F'.
                        // upper 4 bits를 ascii code로.
                        if (uHex!=0) leading_zero = false;
 8000b78:	f000 8124 	beq.w	8000dc4 <printf+0xa78>
                        if (uHex<10) uHex+='0';
 8000b7c:	2909      	cmp	r1, #9
 8000b7e:	f240 816b 	bls.w	8000e58 <printf+0xb0c>
                        else         uHex+='A'-10;
 8000b82:	f101 0037 	add.w	r0, r1, #55	; 0x37
                        // upper 4 bits 출력.
                        if (leading_zero){
                                if (flag0) print_byte('0');
                                else       print_byte(' ');
                        }
                        else print_byte(uHex);
 8000b86:	9301      	str	r3, [sp, #4]
 8000b88:	47d0      	blx	sl
 8000b8a:	9b01      	ldr	r3, [sp, #4]
 8000b8c:	2200      	movs	r2, #0
                        
                        // lower 4 bits를 ascii code로.
                        if (lHex!=0) leading_zero = false;
 8000b8e:	2b00      	cmp	r3, #0
 8000b90:	f000 8111 	beq.w	8000db6 <printf+0xa6a>
                        if (lHex<10) lHex+='0';
 8000b94:	2b09      	cmp	r3, #9
 8000b96:	f240 8159 	bls.w	8000e4c <printf+0xb00>
                        else         lHex+='A'-10;
 8000b9a:	f103 0037 	add.w	r0, r3, #55	; 0x37
                        // lower 4 bits 출력.
                        if (leading_zero){
                                if (flag0) print_byte('0');
                                else       print_byte(' ');
                        }
                        else print_byte(lHex);
 8000b9e:	47d0      	blx	sl
 8000ba0:	2200      	movs	r2, #0
                        flagcnt--;
                }


                // byte단위의 data를 Hex로 출력.
                for (cnt=0, i=(8-flagcnt)/2; i<4; i++){
 8000ba2:	455e      	cmp	r6, fp
 8000ba4:	f43f abdd 	beq.w	8000362 <printf+0x16>
 8000ba8:	9503      	str	r5, [sp, #12]
                        c = s[i];
 8000baa:	f816 3b01 	ldrb.w	r3, [r6], #1
 8000bae:	4625      	mov	r5, r4
                                
                        // get upper 4 bits and lower 4 bits.
                        uHex = ((c>>4)&0x0f);
                        lHex = ((c>>0)&0x0f);
 8000bb0:	f003 040f 	and.w	r4, r3, #15


                        // upper 4 bits and lower 4 bits to '0'~'9', 'A'~'F'.
                        // upper 4 bits를 ascii code로.
                        if (uHex!=0) leading_zero = false;
 8000bb4:	091b      	lsrs	r3, r3, #4
 8000bb6:	d02e      	beq.n	8000c16 <printf+0x8ca>
                        if (uHex<10) uHex+='0';
 8000bb8:	2b09      	cmp	r3, #9
 8000bba:	f240 8144 	bls.w	8000e46 <printf+0xafa>
                        else         uHex+='A'-10;
 8000bbe:	f103 0037 	add.w	r0, r3, #55	; 0x37
                        // upper 4 bits 출력.
                        if (leading_zero){
                                if (flag0) print_byte('0');
                                else       print_byte(' ');
                        }
                        else print_byte(uHex);
 8000bc2:	47d0      	blx	sl
 8000bc4:	2300      	movs	r3, #0
                        
                        // lower 4 bits를 ascii code로.
                        if (lHex!=0) leading_zero = false;
 8000bc6:	2c00      	cmp	r4, #0
 8000bc8:	d030      	beq.n	8000c2c <printf+0x8e0>
                        if (lHex<10) lHex+='0';
 8000bca:	2c09      	cmp	r4, #9
 8000bcc:	f240 8138 	bls.w	8000e40 <printf+0xaf4>
                        else         lHex+='A'-10;
 8000bd0:	f104 0037 	add.w	r0, r4, #55	; 0x37
                        // lower 4 bits 출력.
                        if (leading_zero){
                                if (flag0) print_byte('0');
                                else       print_byte(' ');
                        }
                        else print_byte(lHex);
 8000bd4:	47d0      	blx	sl
 8000bd6:	2200      	movs	r2, #0
                }


                // byte단위의 data를 Hex로 출력.
                for (cnt=0, i=(8-flagcnt)/2; i<4; i++){
                        c = s[i];
 8000bd8:	f816 1b01 	ldrb.w	r1, [r6], #1
                        lHex = ((c>>0)&0x0f);


                        // upper 4 bits and lower 4 bits to '0'~'9', 'A'~'F'.
                        // upper 4 bits를 ascii code로.
                        if (uHex!=0) leading_zero = false;
 8000bdc:	090b      	lsrs	r3, r1, #4
                for (cnt=0, i=(8-flagcnt)/2; i<4; i++){
                        c = s[i];
                                
                        // get upper 4 bits and lower 4 bits.
                        uHex = ((c>>4)&0x0f);
                        lHex = ((c>>0)&0x0f);
 8000bde:	f001 040f 	and.w	r4, r1, #15


                        // upper 4 bits and lower 4 bits to '0'~'9', 'A'~'F'.
                        // upper 4 bits를 ascii code로.
                        if (uHex!=0) leading_zero = false;
 8000be2:	d032      	beq.n	8000c4a <printf+0x8fe>
                        if (uHex<10) uHex+='0';
 8000be4:	2b09      	cmp	r3, #9
 8000be6:	f240 8119 	bls.w	8000e1c <printf+0xad0>
                        else         uHex+='A'-10;
 8000bea:	f103 0037 	add.w	r0, r3, #55	; 0x37
                        // upper 4 bits 출력.
                        if (leading_zero){
                                if (flag0) print_byte('0');
                                else       print_byte(' ');
                        }
                        else print_byte(uHex);
 8000bee:	47d0      	blx	sl
 8000bf0:	2300      	movs	r3, #0
                        
                        // lower 4 bits를 ascii code로.
                        if (lHex!=0) leading_zero = false;
 8000bf2:	2c00      	cmp	r4, #0
 8000bf4:	d034      	beq.n	8000c60 <printf+0x914>
                        if (lHex<10) lHex+='0';
 8000bf6:	2c09      	cmp	r4, #9
 8000bf8:	f240 810d 	bls.w	8000e16 <printf+0xaca>
                        else         lHex+='A'-10;
 8000bfc:	f104 0037 	add.w	r0, r4, #55	; 0x37
                        // lower 4 bits 출력.
                        if (leading_zero){
                                if (flag0) print_byte('0');
                                else       print_byte(' ');
                        }
                        else print_byte(lHex);
 8000c00:	47d0      	blx	sl
 8000c02:	2200      	movs	r2, #0
                        flagcnt--;
                }


                // byte단위의 data를 Hex로 출력.
                for (cnt=0, i=(8-flagcnt)/2; i<4; i++){
 8000c04:	455e      	cmp	r6, fp
 8000c06:	f43f adb2 	beq.w	800076e <printf+0x422>
                        c = s[i];
 8000c0a:	f816 3b01 	ldrb.w	r3, [r6], #1
                                
                        // get upper 4 bits and lower 4 bits.
                        uHex = ((c>>4)&0x0f);
                        lHex = ((c>>0)&0x0f);
 8000c0e:	f003 040f 	and.w	r4, r3, #15


                        // upper 4 bits and lower 4 bits to '0'~'9', 'A'~'F'.
                        // upper 4 bits를 ascii code로.
                        if (uHex!=0) leading_zero = false;
 8000c12:	091b      	lsrs	r3, r3, #4
 8000c14:	d1d0      	bne.n	8000bb8 <printf+0x86c>
                        if (uHex<10) uHex+='0';
                        else         uHex+='A'-10;


                        // upper 4 bits 출력.
                        if (leading_zero){
 8000c16:	2a00      	cmp	r2, #0
 8000c18:	f000 8115 	beq.w	8000e46 <printf+0xafa>
                                if (flag0) print_byte('0');
 8000c1c:	2d00      	cmp	r5, #0
 8000c1e:	f000 80c6 	beq.w	8000dae <printf+0xa62>
 8000c22:	2030      	movs	r0, #48	; 0x30
 8000c24:	47d0      	blx	sl
 8000c26:	2301      	movs	r3, #1
                                else       print_byte(' ');
                        }
                        else print_byte(uHex);
                        
                        // lower 4 bits를 ascii code로.
                        if (lHex!=0) leading_zero = false;
 8000c28:	2c00      	cmp	r4, #0
 8000c2a:	d1ce      	bne.n	8000bca <printf+0x87e>
                        if (lHex<10) lHex+='0';
                        else         lHex+='A'-10;


                        // lower 4 bits 출력.
                        if (leading_zero){
 8000c2c:	2b00      	cmp	r3, #0
 8000c2e:	f000 8107 	beq.w	8000e40 <printf+0xaf4>
                                if (flag0) print_byte('0');
 8000c32:	2d00      	cmp	r5, #0
 8000c34:	f000 80b7 	beq.w	8000da6 <printf+0xa5a>
 8000c38:	2030      	movs	r0, #48	; 0x30
 8000c3a:	47d0      	blx	sl
                }


                // byte단위의 data를 Hex로 출력.
                for (cnt=0, i=(8-flagcnt)/2; i<4; i++){
                        c = s[i];
 8000c3c:	f816 1b01 	ldrb.w	r1, [r6], #1
                        else         lHex+='A'-10;


                        // lower 4 bits 출력.
                        if (leading_zero){
                                if (flag0) print_byte('0');
 8000c40:	2201      	movs	r2, #1
                        lHex = ((c>>0)&0x0f);


                        // upper 4 bits and lower 4 bits to '0'~'9', 'A'~'F'.
                        // upper 4 bits를 ascii code로.
                        if (uHex!=0) leading_zero = false;
 8000c42:	090b      	lsrs	r3, r1, #4
                for (cnt=0, i=(8-flagcnt)/2; i<4; i++){
                        c = s[i];
                                
                        // get upper 4 bits and lower 4 bits.
                        uHex = ((c>>4)&0x0f);
                        lHex = ((c>>0)&0x0f);
 8000c44:	f001 040f 	and.w	r4, r1, #15


                        // upper 4 bits and lower 4 bits to '0'~'9', 'A'~'F'.
                        // upper 4 bits를 ascii code로.
                        if (uHex!=0) leading_zero = false;
 8000c48:	d1cc      	bne.n	8000be4 <printf+0x898>
                        if (uHex<10) uHex+='0';
                        else         uHex+='A'-10;


                        // upper 4 bits 출력.
                        if (leading_zero){
 8000c4a:	2a00      	cmp	r2, #0
 8000c4c:	f000 80e6 	beq.w	8000e1c <printf+0xad0>
                                if (flag0) print_byte('0');
 8000c50:	2d00      	cmp	r5, #0
 8000c52:	f040 80a0 	bne.w	8000d96 <printf+0xa4a>
                                else       print_byte(' ');
 8000c56:	2020      	movs	r0, #32
 8000c58:	47d0      	blx	sl
 8000c5a:	2301      	movs	r3, #1
                        }
                        else print_byte(uHex);
                        
                        // lower 4 bits를 ascii code로.
                        if (lHex!=0) leading_zero = false;
 8000c5c:	2c00      	cmp	r4, #0
 8000c5e:	d1ca      	bne.n	8000bf6 <printf+0x8aa>
                        if (lHex<10) lHex+='0';
                        else         lHex+='A'-10;


                        // lower 4 bits 출력.
                        if (leading_zero){
 8000c60:	2b00      	cmp	r3, #0
 8000c62:	f000 80d8 	beq.w	8000e16 <printf+0xaca>
                                if (flag0) print_byte('0');
 8000c66:	2d00      	cmp	r5, #0
 8000c68:	f040 8099 	bne.w	8000d9e <printf+0xa52>
                                else       print_byte(' ');
 8000c6c:	2020      	movs	r0, #32
 8000c6e:	47d0      	blx	sl
 8000c70:	2201      	movs	r2, #1
 8000c72:	e7c7      	b.n	8000c04 <printf+0x8b8>
{
        long retval=num;
        cnt--;


        while (cnt--){
 8000c74:	1e48      	subs	r0, r1, #1
 8000c76:	f000 80c5 	beq.w	8000e04 <printf+0xab8>
 8000c7a:	1e8c      	subs	r4, r1, #2
 8000c7c:	3801      	subs	r0, #1
 8000c7e:	3903      	subs	r1, #3
 8000c80:	e520      	b.n	80006c4 <printf+0x378>
 8000c82:	bf00      	nop
 8000c84:	55e63b89 	.word	0x55e63b89
 8000c88:	05f5e100 	.word	0x05f5e100
 8000c8c:	080010a9 	.word	0x080010a9
 8000c90:	6b5fca6b 	.word	0x6b5fca6b
 8000c94:	00989680 	.word	0x00989680
 8000c98:	431bde83 	.word	0x431bde83
 8000c9c:	000f4240 	.word	0x000f4240
 8000ca0:	14f8b589 	.word	0x14f8b589
 8000ca4:	000186a0 	.word	0x000186a0
 8000ca8:	68db8bad 	.word	0x68db8bad
 8000cac:	10624dd3 	.word	0x10624dd3
 8000cb0:	51eb851f 	.word	0x51eb851f
                        if (uHex<10) uHex+='0';
                        else         uHex+='A'-10;
                        if (!leading_zero) print_byte(uHex);
                        
                        if (lHex!=0 || i==3) leading_zero = false;
                        if (lHex<10) lHex+='0';
 8000cb4:	2c09      	cmp	r4, #9
 8000cb6:	f240 80b4 	bls.w	8000e22 <printf+0xad6>
                        else         lHex+='A'-10;
 8000cba:	f104 0037 	add.w	r0, r4, #55	; 0x37
                        if (!leading_zero) print_byte(lHex);
 8000cbe:	47b0      	blx	r6
                        else print_byte(lHex);
                }
        }
        else {
                for (i=0; i<4; i++){
                        c = s[i];
 8000cc0:	f89d c02d 	ldrb.w	ip, [sp, #45]	; 0x2d
                        if (!leading_zero) print_byte(uHex);
                        
                        if (lHex!=0 || i==3) leading_zero = false;
                        if (lHex<10) lHex+='0';
                        else         lHex+='A'-10;
                        if (!leading_zero) print_byte(lHex);
 8000cc4:	2200      	movs	r2, #0
                        uHex = ((c>>4)&0x0f);
                        lHex = ((c>>0)&0x0f);


                        // upper 4 bits and lower 4 bits to '0'~'9', 'A'~'F'.
                        if (uHex!=0) leading_zero = false;
 8000cc6:	ea5f 131c 	movs.w	r3, ip, lsr #4
                for (i=0; i<4; i++){
                        c = s[i];
        
                        // get upper 4 bits and lower 4 bits.
                        uHex = ((c>>4)&0x0f);
                        lHex = ((c>>0)&0x0f);
 8000cca:	f00c 040f 	and.w	r4, ip, #15


                        // upper 4 bits and lower 4 bits to '0'~'9', 'A'~'F'.
                        if (uHex!=0) leading_zero = false;
 8000cce:	f47f ad6c 	bne.w	80007aa <printf+0x45e>
                        if (uHex<10) uHex+='0';
                        else         uHex+='A'-10;
                        if (!leading_zero) print_byte(uHex);
 8000cd2:	2a00      	cmp	r2, #0
 8000cd4:	f000 80c8 	beq.w	8000e68 <printf+0xb1c>
 8000cd8:	2301      	movs	r3, #1
                        
                        if (lHex!=0 || i==3) leading_zero = false;
 8000cda:	2c00      	cmp	r4, #0
 8000cdc:	f43f ad6f 	beq.w	80007be <printf+0x472>
                        if (lHex<10) lHex+='0';
 8000ce0:	2c09      	cmp	r4, #9
 8000ce2:	f240 80a1 	bls.w	8000e28 <printf+0xadc>
                        else         lHex+='A'-10;
 8000ce6:	f104 0037 	add.w	r0, r4, #55	; 0x37
                        if (!leading_zero) print_byte(lHex);
 8000cea:	47b0      	blx	r6
                        else print_byte(lHex);
                }
        }
        else {
                for (i=0; i<4; i++){
                        c = s[i];
 8000cec:	f89d e02e 	ldrb.w	lr, [sp, #46]	; 0x2e
                        if (!leading_zero) print_byte(uHex);
                        
                        if (lHex!=0 || i==3) leading_zero = false;
                        if (lHex<10) lHex+='0';
                        else         lHex+='A'-10;
                        if (!leading_zero) print_byte(lHex);
 8000cf0:	2200      	movs	r2, #0
                        uHex = ((c>>4)&0x0f);
                        lHex = ((c>>0)&0x0f);


                        // upper 4 bits and lower 4 bits to '0'~'9', 'A'~'F'.
                        if (uHex!=0) leading_zero = false;
 8000cf2:	ea5f 131e 	movs.w	r3, lr, lsr #4
                for (i=0; i<4; i++){
                        c = s[i];
        
                        // get upper 4 bits and lower 4 bits.
                        uHex = ((c>>4)&0x0f);
                        lHex = ((c>>0)&0x0f);
 8000cf6:	f00e 040f 	and.w	r4, lr, #15


                        // upper 4 bits and lower 4 bits to '0'~'9', 'A'~'F'.
                        if (uHex!=0) leading_zero = false;
 8000cfa:	f47f ad6c 	bne.w	80007d6 <printf+0x48a>
                        if (uHex<10) uHex+='0';
                        else         uHex+='A'-10;
                        if (!leading_zero) print_byte(uHex);
 8000cfe:	2a00      	cmp	r2, #0
 8000d00:	f000 8095 	beq.w	8000e2e <printf+0xae2>
 8000d04:	2301      	movs	r3, #1
                        
                        if (lHex!=0 || i==3) leading_zero = false;
 8000d06:	2c00      	cmp	r4, #0
 8000d08:	f43f ad6f 	beq.w	80007ea <printf+0x49e>
                        if (lHex<10) lHex+='0';
 8000d0c:	2c09      	cmp	r4, #9
 8000d0e:	f240 8091 	bls.w	8000e34 <printf+0xae8>
                        else         lHex+='A'-10;
 8000d12:	f104 0037 	add.w	r0, r4, #55	; 0x37
                        if (!leading_zero) print_byte(lHex);
 8000d16:	47b0      	blx	r6
                        else print_byte(lHex);
                }
        }
        else {
                for (i=0; i<4; i++){
                        c = s[i];
 8000d18:	f89d 002f 	ldrb.w	r0, [sp, #47]	; 0x2f
                        if (!leading_zero) print_byte(uHex);
                        
                        if (lHex!=0 || i==3) leading_zero = false;
                        if (lHex<10) lHex+='0';
                        else         lHex+='A'-10;
                        if (!leading_zero) print_byte(lHex);
 8000d1c:	2200      	movs	r2, #0
                        uHex = ((c>>4)&0x0f);
                        lHex = ((c>>0)&0x0f);


                        // upper 4 bits and lower 4 bits to '0'~'9', 'A'~'F'.
                        if (uHex!=0) leading_zero = false;
 8000d1e:	0903      	lsrs	r3, r0, #4
                for (i=0; i<4; i++){
                        c = s[i];
        
                        // get upper 4 bits and lower 4 bits.
                        uHex = ((c>>4)&0x0f);
                        lHex = ((c>>0)&0x0f);
 8000d20:	f000 040f 	and.w	r4, r0, #15


                        // upper 4 bits and lower 4 bits to '0'~'9', 'A'~'F'.
                        if (uHex!=0) leading_zero = false;
 8000d24:	f47f ad6c 	bne.w	8000800 <printf+0x4b4>
                        if (uHex<10) uHex+='0';
                        else         uHex+='A'-10;
                        if (!leading_zero) print_byte(uHex);
 8000d28:	2a00      	cmp	r2, #0
 8000d2a:	f47f ad6f 	bne.w	800080c <printf+0x4c0>
                        lHex = ((c>>0)&0x0f);


                        // upper 4 bits and lower 4 bits to '0'~'9', 'A'~'F'.
                        if (uHex!=0) leading_zero = false;
                        if (uHex<10) uHex+='0';
 8000d2e:	f103 0030 	add.w	r0, r3, #48	; 0x30
                        else         uHex+='A'-10;
                        if (!leading_zero) print_byte(uHex);
 8000d32:	47b0      	blx	r6
 8000d34:	e56a      	b.n	800080c <printf+0x4c0>
                        
                        if (lHex!=0 || i==3) leading_zero = false;
                        if (lHex<10) lHex+='0';
 8000d36:	f104 0030 	add.w	r0, r4, #48	; 0x30
                        else         lHex+='A'-10;
                        if (!leading_zero) print_byte(lHex);
 8000d3a:	47b0      	blx	r6
 8000d3c:	f7ff bb11 	b.w	8000362 <printf+0x16>
                        lHex = ((c>>0)&0x0f);


                        // upper 4 bits and lower 4 bits to '0'~'9', 'A'~'F'.
                        if (uHex!=0) leading_zero = false;
                        if (uHex<10) uHex+='0';
 8000d40:	2b09      	cmp	r3, #9
 8000d42:	d97a      	bls.n	8000e3a <printf+0xaee>
                        else         uHex+='A'-10;
 8000d44:	f103 0037 	add.w	r0, r3, #55	; 0x37
                        if (!leading_zero) print_byte(uHex);
 8000d48:	4e49      	ldr	r6, [pc, #292]	; (8000e70 <printf+0xb24>)
 8000d4a:	47b0      	blx	r6
 8000d4c:	2300      	movs	r3, #0
 8000d4e:	e51d      	b.n	800078c <printf+0x440>
                if (*s=='%'){
                        s++;
                        // s에서 "%08lx"형식을 가져와 format에 기록. 나중에 출력함수에 넘겨줌.
                        format[0] = '%';
                        for (i=1; i<10;){
                                if (*s=='c' || *s=='d' || *s=='x' || *s=='s' || *s=='%'){
 8000d50:	2309      	movs	r3, #9
 8000d52:	e615      	b.n	8000980 <printf+0x634>


                        // upper 4 bits and lower 4 bits to '0'~'9', 'A'~'F'.
                        // upper 4 bits를 ascii code로.
                        if (uHex!=0) leading_zero = false;
                        if (uHex<10) uHex+='0';
 8000d54:	2809      	cmp	r0, #9
 8000d56:	f240 8085 	bls.w	8000e64 <printf+0xb18>
                        else         uHex+='A'-10;
 8000d5a:	3037      	adds	r0, #55	; 0x37
                        // upper 4 bits 출력.
                        if (leading_zero){
                                if (flag0) print_byte('0');
                                else       print_byte(' ');
                        }
                        else print_byte(uHex);
 8000d5c:	9202      	str	r2, [sp, #8]
 8000d5e:	9301      	str	r3, [sp, #4]
 8000d60:	47d0      	blx	sl
 8000d62:	9a02      	ldr	r2, [sp, #8]
 8000d64:	2100      	movs	r1, #0
 8000d66:	9b01      	ldr	r3, [sp, #4]
                        
                        // lower 4 bits를 ascii code로.
                        if (lHex!=0) leading_zero = false;
 8000d68:	2a00      	cmp	r2, #0
 8000d6a:	f47f aef0 	bne.w	8000b4e <printf+0x802>
                        if (lHex<10) lHex+='0';
                        else         lHex+='A'-10;


                        // lower 4 bits 출력.
                        if (leading_zero){
 8000d6e:	2900      	cmp	r1, #0
 8000d70:	d075      	beq.n	8000e5e <printf+0xb12>
                                if (flag0) print_byte('0');
 8000d72:	2c00      	cmp	r4, #0
 8000d74:	d12f      	bne.n	8000dd6 <printf+0xa8a>
                                else       print_byte(' ');
 8000d76:	9301      	str	r3, [sp, #4]
 8000d78:	2020      	movs	r0, #32
 8000d7a:	47d0      	blx	sl
 8000d7c:	2201      	movs	r2, #1
 8000d7e:	9b01      	ldr	r3, [sp, #4]
 8000d80:	e6ee      	b.n	8000b60 <printf+0x814>
                        else         lHex+='A'-10;


                        // lower 4 bits 출력.
                        if (leading_zero){
                                if (flag0) print_byte('0');
 8000d82:	2c00      	cmp	r4, #0
 8000d84:	d039      	beq.n	8000dfa <printf+0xaae>
 8000d86:	2030      	movs	r0, #48	; 0x30
 8000d88:	4a39      	ldr	r2, [pc, #228]	; (8000e70 <printf+0xb24>)
 8000d8a:	4790      	blx	r2
 8000d8c:	2101      	movs	r1, #1
                                else       print_byte(' ');
                        }
                        else print_byte(lHex);
                        
                        flagcnt--;
 8000d8e:	980a      	ldr	r0, [sp, #40]	; 0x28
 8000d90:	1e42      	subs	r2, r0, #1
 8000d92:	920a      	str	r2, [sp, #40]	; 0x28
 8000d94:	e6ae      	b.n	8000af4 <printf+0x7a8>
                        else         uHex+='A'-10;


                        // upper 4 bits 출력.
                        if (leading_zero){
                                if (flag0) print_byte('0');
 8000d96:	2030      	movs	r0, #48	; 0x30
 8000d98:	47d0      	blx	sl
 8000d9a:	2301      	movs	r3, #1
 8000d9c:	e729      	b.n	8000bf2 <printf+0x8a6>
                        else         lHex+='A'-10;


                        // lower 4 bits 출력.
                        if (leading_zero){
                                if (flag0) print_byte('0');
 8000d9e:	2030      	movs	r0, #48	; 0x30
 8000da0:	47d0      	blx	sl
 8000da2:	2201      	movs	r2, #1
 8000da4:	e72e      	b.n	8000c04 <printf+0x8b8>
                                else       print_byte(' ');
 8000da6:	2020      	movs	r0, #32
 8000da8:	47d0      	blx	sl
 8000daa:	2201      	movs	r2, #1
 8000dac:	e714      	b.n	8000bd8 <printf+0x88c>


                        // upper 4 bits 출력.
                        if (leading_zero){
                                if (flag0) print_byte('0');
                                else       print_byte(' ');
 8000dae:	2020      	movs	r0, #32
 8000db0:	47d0      	blx	sl
 8000db2:	2301      	movs	r3, #1
 8000db4:	e707      	b.n	8000bc6 <printf+0x87a>
                        if (lHex<10) lHex+='0';
                        else         lHex+='A'-10;


                        // lower 4 bits 출력.
                        if (leading_zero){
 8000db6:	2a00      	cmp	r2, #0
 8000db8:	d048      	beq.n	8000e4c <printf+0xb00>
                                if (flag0) print_byte('0');
 8000dba:	b9d4      	cbnz	r4, 8000df2 <printf+0xaa6>
                                else       print_byte(' ');
 8000dbc:	2020      	movs	r0, #32
 8000dbe:	47d0      	blx	sl
 8000dc0:	2201      	movs	r2, #1
 8000dc2:	e6ee      	b.n	8000ba2 <printf+0x856>
                        if (uHex<10) uHex+='0';
                        else         uHex+='A'-10;


                        // upper 4 bits 출력.
                        if (leading_zero){
 8000dc4:	2a00      	cmp	r2, #0
 8000dc6:	d047      	beq.n	8000e58 <printf+0xb0c>
                                if (flag0) print_byte('0');
 8000dc8:	b96c      	cbnz	r4, 8000de6 <printf+0xa9a>
                                else       print_byte(' ');
 8000dca:	9301      	str	r3, [sp, #4]
 8000dcc:	2020      	movs	r0, #32
 8000dce:	47d0      	blx	sl
 8000dd0:	2201      	movs	r2, #1
 8000dd2:	9b01      	ldr	r3, [sp, #4]
 8000dd4:	e6db      	b.n	8000b8e <printf+0x842>
                        else         lHex+='A'-10;


                        // lower 4 bits 출력.
                        if (leading_zero){
                                if (flag0) print_byte('0');
 8000dd6:	9301      	str	r3, [sp, #4]
 8000dd8:	2030      	movs	r0, #48	; 0x30
 8000dda:	47d0      	blx	sl
 8000ddc:	2201      	movs	r2, #1
 8000dde:	9b01      	ldr	r3, [sp, #4]
 8000de0:	e6be      	b.n	8000b60 <printf+0x814>
                        else         uHex+='A'-10;


                        // upper 4 bits 출력.
                        if (leading_zero){
                                if (flag0) print_byte('0');
 8000de2:	2030      	movs	r0, #48	; 0x30
 8000de4:	e6aa      	b.n	8000b3c <printf+0x7f0>
 8000de6:	9301      	str	r3, [sp, #4]
 8000de8:	2030      	movs	r0, #48	; 0x30
 8000dea:	47d0      	blx	sl
 8000dec:	2201      	movs	r2, #1
 8000dee:	9b01      	ldr	r3, [sp, #4]
 8000df0:	e6cd      	b.n	8000b8e <printf+0x842>
                        else         lHex+='A'-10;


                        // lower 4 bits 출력.
                        if (leading_zero){
                                if (flag0) print_byte('0');
 8000df2:	2030      	movs	r0, #48	; 0x30
 8000df4:	47d0      	blx	sl
 8000df6:	2201      	movs	r2, #1
 8000df8:	e6d3      	b.n	8000ba2 <printf+0x856>


                        // lower 4 bits 출력.
                        if (leading_zero){
                                if (flag0) print_byte('0');
                                else       print_byte(' ');
 8000dfa:	2020      	movs	r0, #32
 8000dfc:	4b1c      	ldr	r3, [pc, #112]	; (8000e70 <printf+0xb24>)
 8000dfe:	4798      	blx	r3
 8000e00:	2101      	movs	r1, #1
 8000e02:	e7c4      	b.n	8000d8e <printf+0xa42>
{
        long retval=num;
        cnt--;


        while (cnt--){
 8000e04:	1e8c      	subs	r4, r1, #2
        return;
}

int Power(int num, int cnt)
{
        long retval=num;
 8000e06:	230a      	movs	r3, #10
        cnt--;


        while (cnt--){
 8000e08:	3903      	subs	r1, #3
 8000e0a:	e473      	b.n	80006f4 <printf+0x3a8>
        return;
}

int Power(int num, int cnt)
{
        long retval=num;
 8000e0c:	240a      	movs	r4, #10
 8000e0e:	e48e      	b.n	800072e <printf+0x3e2>
}

void PrintHex(char *fmt, int l){
        int                i, j;
        char        c, *s=fmt, tol[10];
        bool        flag0=false, flagl=false;        // flags.
 8000e10:	461c      	mov	r4, r3
 8000e12:	f7ff bbc2 	b.w	800059a <printf+0x24e>
                        }
                        else print_byte(uHex);
                        
                        // lower 4 bits를 ascii code로.
                        if (lHex!=0) leading_zero = false;
                        if (lHex<10) lHex+='0';
 8000e16:	f104 0030 	add.w	r0, r4, #48	; 0x30
 8000e1a:	e6f1      	b.n	8000c00 <printf+0x8b4>


                        // upper 4 bits and lower 4 bits to '0'~'9', 'A'~'F'.
                        // upper 4 bits를 ascii code로.
                        if (uHex!=0) leading_zero = false;
                        if (uHex<10) uHex+='0';
 8000e1c:	f103 0030 	add.w	r0, r3, #48	; 0x30
 8000e20:	e6e5      	b.n	8000bee <printf+0x8a2>
                        if (uHex<10) uHex+='0';
                        else         uHex+='A'-10;
                        if (!leading_zero) print_byte(uHex);
                        
                        if (lHex!=0 || i==3) leading_zero = false;
                        if (lHex<10) lHex+='0';
 8000e22:	f104 0030 	add.w	r0, r4, #48	; 0x30
 8000e26:	e74a      	b.n	8000cbe <printf+0x972>
 8000e28:	f104 0030 	add.w	r0, r4, #48	; 0x30
 8000e2c:	e75d      	b.n	8000cea <printf+0x99e>
                        lHex = ((c>>0)&0x0f);


                        // upper 4 bits and lower 4 bits to '0'~'9', 'A'~'F'.
                        if (uHex!=0) leading_zero = false;
                        if (uHex<10) uHex+='0';
 8000e2e:	f103 0030 	add.w	r0, r3, #48	; 0x30
 8000e32:	e4d5      	b.n	80007e0 <printf+0x494>
                        else         uHex+='A'-10;
                        if (!leading_zero) print_byte(uHex);
                        
                        if (lHex!=0 || i==3) leading_zero = false;
                        if (lHex<10) lHex+='0';
 8000e34:	f104 0030 	add.w	r0, r4, #48	; 0x30
 8000e38:	e76d      	b.n	8000d16 <printf+0x9ca>
                        lHex = ((c>>0)&0x0f);


                        // upper 4 bits and lower 4 bits to '0'~'9', 'A'~'F'.
                        if (uHex!=0) leading_zero = false;
                        if (uHex<10) uHex+='0';
 8000e3a:	f103 0030 	add.w	r0, r3, #48	; 0x30
 8000e3e:	e783      	b.n	8000d48 <printf+0x9fc>
                        }
                        else print_byte(uHex);
                        
                        // lower 4 bits를 ascii code로.
                        if (lHex!=0) leading_zero = false;
                        if (lHex<10) lHex+='0';
 8000e40:	f104 0030 	add.w	r0, r4, #48	; 0x30
 8000e44:	e6c6      	b.n	8000bd4 <printf+0x888>


                        // upper 4 bits and lower 4 bits to '0'~'9', 'A'~'F'.
                        // upper 4 bits를 ascii code로.
                        if (uHex!=0) leading_zero = false;
                        if (uHex<10) uHex+='0';
 8000e46:	f103 0030 	add.w	r0, r3, #48	; 0x30
 8000e4a:	e6ba      	b.n	8000bc2 <printf+0x876>
                        }
                        else print_byte(uHex);
                        
                        // lower 4 bits를 ascii code로.
                        if (lHex!=0) leading_zero = false;
                        if (lHex<10) lHex+='0';
 8000e4c:	f103 0030 	add.w	r0, r3, #48	; 0x30
 8000e50:	e6a5      	b.n	8000b9e <printf+0x852>
                        c = s[(8-(flagcnt+1))/2]; // 홀수 일때 그 위치를 포함하는 곳의 값을 가져 옵니다.
                        
                        // lower 4 bits를 가져와서 ascii code로.
                        lHex = ((c>>0)&0x0f);
                        if (lHex!=0) leading_zero=false;
                        if (lHex<10) lHex+='0';
 8000e52:	3330      	adds	r3, #48	; 0x30
 8000e54:	f7ff bbc6 	b.w	80005e4 <printf+0x298>


                        // upper 4 bits and lower 4 bits to '0'~'9', 'A'~'F'.
                        // upper 4 bits를 ascii code로.
                        if (uHex!=0) leading_zero = false;
                        if (uHex<10) uHex+='0';
 8000e58:	f101 0030 	add.w	r0, r1, #48	; 0x30
 8000e5c:	e693      	b.n	8000b86 <printf+0x83a>
                        }
                        else print_byte(uHex);
                        
                        // lower 4 bits를 ascii code로.
                        if (lHex!=0) leading_zero = false;
                        if (lHex<10) lHex+='0';
 8000e5e:	f102 0030 	add.w	r0, r2, #48	; 0x30
 8000e62:	e679      	b.n	8000b58 <printf+0x80c>


                        // upper 4 bits and lower 4 bits to '0'~'9', 'A'~'F'.
                        // upper 4 bits를 ascii code로.
                        if (uHex!=0) leading_zero = false;
                        if (uHex<10) uHex+='0';
 8000e64:	3030      	adds	r0, #48	; 0x30
 8000e66:	e779      	b.n	8000d5c <printf+0xa10>
                        lHex = ((c>>0)&0x0f);


                        // upper 4 bits and lower 4 bits to '0'~'9', 'A'~'F'.
                        if (uHex!=0) leading_zero = false;
                        if (uHex<10) uHex+='0';
 8000e68:	f103 0030 	add.w	r0, r3, #48	; 0x30
 8000e6c:	e4a2      	b.n	80007b4 <printf+0x468>
 8000e6e:	bf00      	nop
 8000e70:	080010a9 	.word	0x080010a9

08000e74 <Hw_StartUp_Init>:
     			보드 리셋시에 처음 실행되는 함수
     ARG     : 	void
     RET     : 	void
---------------------------------------------------------------------------*/
void Hw_StartUp_Init(void)
{
 8000e74:	4668      	mov	r0, sp
 8000e76:	f020 0107 	bic.w	r1, r0, #7
 8000e7a:	468d      	mov	sp, r1
 8000e7c:	b579      	push	{r0, r3, r4, r5, r6, lr}
	//  
	
	// Copy the data segment initializers from flash to SRAM
	pulSrc = &_sidata;

	for(pulDest = &_sdata; pulDest < &_edata; )
 8000e7e:	492b      	ldr	r1, [pc, #172]	; (8000f2c <zero_loop+0x5a>)
 8000e80:	4c2b      	ldr	r4, [pc, #172]	; (8000f30 <zero_loop+0x5e>)
 8000e82:	42a1      	cmp	r1, r4
 8000e84:	d221      	bcs.n	8000eca <Hw_StartUp_Init+0x56>
 8000e86:	482b      	ldr	r0, [pc, #172]	; (8000f34 <zero_loop+0x62>)
	{
		*(pulDest++) = *(pulSrc++);
 8000e88:	460b      	mov	r3, r1
 8000e8a:	4602      	mov	r2, r0
 8000e8c:	f852 6b04 	ldr.w	r6, [r2], #4
 8000e90:	43cd      	mvns	r5, r1
 8000e92:	f843 6b04 	str.w	r6, [r3], #4
 8000e96:	1965      	adds	r5, r4, r5
	//  
	
	// Copy the data segment initializers from flash to SRAM
	pulSrc = &_sidata;

	for(pulDest = &_sdata; pulDest < &_edata; )
 8000e98:	42a3      	cmp	r3, r4
 8000e9a:	f3c5 0580 	ubfx	r5, r5, #2, #1
 8000e9e:	d214      	bcs.n	8000eca <Hw_StartUp_Init+0x56>
 8000ea0:	b13d      	cbz	r5, 8000eb2 <Hw_StartUp_Init+0x3e>
	{
		*(pulDest++) = *(pulSrc++);
 8000ea2:	6815      	ldr	r5, [r2, #0]
 8000ea4:	f100 0208 	add.w	r2, r0, #8
 8000ea8:	601d      	str	r5, [r3, #0]
 8000eaa:	f101 0308 	add.w	r3, r1, #8
	//  
	
	// Copy the data segment initializers from flash to SRAM
	pulSrc = &_sidata;

	for(pulDest = &_sdata; pulDest < &_edata; )
 8000eae:	42a3      	cmp	r3, r4
 8000eb0:	d20b      	bcs.n	8000eca <Hw_StartUp_Init+0x56>
	{
		*(pulDest++) = *(pulSrc++);
 8000eb2:	4610      	mov	r0, r2
 8000eb4:	f850 5b04 	ldr.w	r5, [r0], #4
 8000eb8:	4619      	mov	r1, r3
 8000eba:	f841 5b04 	str.w	r5, [r1], #4
 8000ebe:	6855      	ldr	r5, [r2, #4]
 8000ec0:	1d02      	adds	r2, r0, #4
 8000ec2:	605d      	str	r5, [r3, #4]
 8000ec4:	1d0b      	adds	r3, r1, #4
	//  
	
	// Copy the data segment initializers from flash to SRAM
	pulSrc = &_sidata;

	for(pulDest = &_sdata; pulDest < &_edata; )
 8000ec6:	42a3      	cmp	r3, r4
 8000ec8:	d3f3      	bcc.n	8000eb2 <Hw_StartUp_Init+0x3e>
		*(pulDest++) = *(pulSrc++);
	}
  
	/* Zero fill the bss segment.  This is done with inline assembly since this
	   will clear the value of pulDest if it is not kept in a register. */
	__asm("  ldr     r0, =_sbss\n"
 8000eca:	481e      	ldr	r0, [pc, #120]	; (8000f44 <zero_loop+0x72>)
 8000ecc:	491e      	ldr	r1, [pc, #120]	; (8000f48 <zero_loop+0x76>)
 8000ece:	f04f 0200 	mov.w	r2, #0

08000ed2 <zero_loop>:
 8000ed2:	4288      	cmp	r0, r1
 8000ed4:	bfb8      	it	lt
 8000ed6:	f840 2b04 	strlt.w	r2, [r0], #4
 8000eda:	dbfa      	blt.n	8000ed2 <zero_loop>
	
    // HSI or HSE 선택
            
    //-- CR_HSEON_Set
    //
	REG_RCC_CR |= (1<<16);	
 8000edc:	4916      	ldr	r1, [pc, #88]	; (8000f38 <zero_loop+0x66>)
     RET     : 	void
---------------------------------------------------------------------------*/
void Hw_StartUp_Init(void)
{
	
	u32 TimeOutCnt  = 0;
 8000ede:	2300      	movs	r3, #0
	
    // HSI or HSE 선택
            
    //-- CR_HSEON_Set
    //
	REG_RCC_CR |= (1<<16);	
 8000ee0:	6808      	ldr	r0, [r1, #0]
		
	//-- 설정된 clock 이 설정 되었는지 확인
	//
	do
	{	
		HSEStatus = REG_RCC_CR & (1<<17);	// HSE 인경우
 8000ee2:	460a      	mov	r2, r1
	
    // HSI or HSE 선택
            
    //-- CR_HSEON_Set
    //
	REG_RCC_CR |= (1<<16);	
 8000ee4:	f440 3080 	orr.w	r0, r0, #65536	; 0x10000
 8000ee8:	6008      	str	r0, [r1, #0]
 8000eea:	e006      	b.n	8000efa <zero_loop+0x28>
		
	//-- 설정된 clock 이 설정 되었는지 확인
	//
	do
	{	
		HSEStatus = REG_RCC_CR & (1<<17);	// HSE 인경우
 8000eec:	6810      	ldr	r0, [r2, #0]
		TimeOutCnt++;		
	} while( (HSEStatus == 0) && (TimeOutCnt < 1280) );
 8000eee:	f410 3f00 	tst.w	r0, #131072	; 0x20000
 8000ef2:	d107      	bne.n	8000f04 <zero_loop+0x32>
 8000ef4:	f5b3 6fa0 	cmp.w	r3, #1280	; 0x500
 8000ef8:	d004      	beq.n	8000f04 <zero_loop+0x32>
		
	//-- 설정된 clock 이 설정 되었는지 확인
	//
	do
	{	
		HSEStatus = REG_RCC_CR & (1<<17);	// HSE 인경우
 8000efa:	6811      	ldr	r1, [r2, #0]
		TimeOutCnt++;		
 8000efc:	3302      	adds	r3, #2
	} while( (HSEStatus == 0) && (TimeOutCnt < 1280) );
 8000efe:	f411 3f00 	tst.w	r1, #131072	; 0x20000
 8000f02:	d0f3      	beq.n	8000eec <zero_loop+0x1a>
  

	//-- FLASH Access 타이밍 설정
	//
	REG_FLASH_ACR |=  (1<<4);	// Prefetch buffer enable
 8000f04:	490d      	ldr	r1, [pc, #52]	; (8000f3c <zero_loop+0x6a>)
 8000f06:	680b      	ldr	r3, [r1, #0]
 8000f08:	f043 0010 	orr.w	r0, r3, #16
 8000f0c:	6008      	str	r0, [r1, #0]
	REG_FLASH_ACR &= ~(3<<0);	// LATENCY Clear
 8000f0e:	680a      	ldr	r2, [r1, #0]
 8000f10:	f022 0303 	bic.w	r3, r2, #3
 8000f14:	600b      	str	r3, [r1, #0]
	REG_FLASH_ACR |=  (2<<0);	// LATENCY = two wait
 8000f16:	6808      	ldr	r0, [r1, #0]


    main();
 8000f18:	4b09      	ldr	r3, [pc, #36]	; (8000f40 <zero_loop+0x6e>)

	//-- FLASH Access 타이밍 설정
	//
	REG_FLASH_ACR |=  (1<<4);	// Prefetch buffer enable
	REG_FLASH_ACR &= ~(3<<0);	// LATENCY Clear
	REG_FLASH_ACR |=  (2<<0);	// LATENCY = two wait
 8000f1a:	f040 0202 	orr.w	r2, r0, #2
 8000f1e:	600a      	str	r2, [r1, #0]


    main();
 8000f20:	4798      	blx	r3

}
 8000f22:	e8bd 4079 	ldmia.w	sp!, {r0, r3, r4, r5, r6, lr}
 8000f26:	4685      	mov	sp, r0
 8000f28:	4770      	bx	lr
 8000f2a:	bf00      	nop
 8000f2c:	20000000 	.word	0x20000000
 8000f30:	20000000 	.word	0x20000000
 8000f34:	0800194c 	.word	0x0800194c
 8000f38:	40021000 	.word	0x40021000
 8000f3c:	40022000 	.word	0x40022000
 8000f40:	08000019 	.word	0x08000019
 8000f44:	20000000 	.word	0x20000000
 8000f48:	20000390 	.word	0x20000390

08000f4c <Hw_Init>:
     WORK    : 
     ARG     : void
     RET     : void
---------------------------------------------------------------------------*/
void Hw_Init( void )
{
 8000f4c:	b508      	push	{r3, lr}
	//-- PLL 설정
	//
	Hw_PLL_Init();
 8000f4e:	480c      	ldr	r0, [pc, #48]	; (8000f80 <Hw_Init+0x34>)
 8000f50:	4780      	blx	r0
	
	
	//-- 인터럽트 관련 초기화
	//
	Hw_ISR_Init();
 8000f52:	4b0c      	ldr	r3, [pc, #48]	; (8000f84 <Hw_Init+0x38>)
 8000f54:	4798      	blx	r3
	
		
	//-- GPIO 기본값 설정
	//
	REG_GPIOA_CRL = 0x33333333;	// PA0 - 7
 8000f56:	480c      	ldr	r0, [pc, #48]	; (8000f88 <Hw_Init+0x3c>)
	REG_GPIOA_CRH = 0x333334B3;	// PA8 - 15    //PA9,10,11,12는 가각 UART, USB에 할당됨
 8000f58:	490c      	ldr	r1, [pc, #48]	; (8000f8c <Hw_Init+0x40>)
	Hw_ISR_Init();
	
		
	//-- GPIO 기본값 설정
	//
	REG_GPIOA_CRL = 0x33333333;	// PA0 - 7
 8000f5a:	f04f 3233 	mov.w	r2, #858993459	; 0x33333333
 8000f5e:	6002      	str	r2, [r0, #0]
	REG_GPIOA_CRH = 0x333334B3;	// PA8 - 15    //PA9,10,11,12는 가각 UART, USB에 할당됨
	REG_GPIOB_CRL = 0x33333333;	// PB0 - 7
	REG_GPIOB_CRH = 0x33333333;	// PB8 - 15
	REG_GPIOC_CRH = 0x33444444;	// PC14, 15
 8000f60:	4b0b      	ldr	r3, [pc, #44]	; (8000f90 <Hw_Init+0x44>)
	
		
	//-- GPIO 기본값 설정
	//
	REG_GPIOA_CRL = 0x33333333;	// PA0 - 7
	REG_GPIOA_CRH = 0x333334B3;	// PA8 - 15    //PA9,10,11,12는 가각 UART, USB에 할당됨
 8000f62:	6041      	str	r1, [r0, #4]
	REG_GPIOB_CRL = 0x33333333;	// PB0 - 7
 8000f64:	f8c0 2400 	str.w	r2, [r0, #1024]	; 0x400
	REG_GPIOB_CRH = 0x33333333;	// PB8 - 15
 8000f68:	f8c0 2404 	str.w	r2, [r0, #1028]	; 0x404
	REG_GPIOC_CRH = 0x33444444;	// PC14, 15
 8000f6c:	4a09      	ldr	r2, [pc, #36]	; (8000f94 <Hw_Init+0x48>)
	
	Hw_Uart_Init();
 8000f6e:	490a      	ldr	r1, [pc, #40]	; (8000f98 <Hw_Init+0x4c>)
	//
	REG_GPIOA_CRL = 0x33333333;	// PA0 - 7
	REG_GPIOA_CRH = 0x333334B3;	// PA8 - 15    //PA9,10,11,12는 가각 UART, USB에 할당됨
	REG_GPIOB_CRL = 0x33333333;	// PB0 - 7
	REG_GPIOB_CRH = 0x33333333;	// PB8 - 15
	REG_GPIOC_CRH = 0x33444444;	// PC14, 15
 8000f70:	601a      	str	r2, [r3, #0]
	
	Hw_Uart_Init();
 8000f72:	4788      	blx	r1
	Hw_Led_Init();
 8000f74:	4809      	ldr	r0, [pc, #36]	; (8000f9c <Hw_Init+0x50>)
 8000f76:	4780      	blx	r0
	Hw_Timer_Init();
 8000f78:	4b09      	ldr	r3, [pc, #36]	; (8000fa0 <Hw_Init+0x54>)
 8000f7a:	4798      	blx	r3
}
 8000f7c:	bd08      	pop	{r3, pc}
 8000f7e:	bf00      	nop
 8000f80:	080010e9 	.word	0x080010e9
 8000f84:	080012d1 	.word	0x080012d1
 8000f88:	40010800 	.word	0x40010800
 8000f8c:	333334b3 	.word	0x333334b3
 8000f90:	40011004 	.word	0x40011004
 8000f94:	33444444 	.word	0x33444444
 8000f98:	08001041 	.word	0x08001041
 8000f9c:	0800114d 	.word	0x0800114d
 8000fa0:	0800134d 	.word	0x0800134d

08000fa4 <Hw_ISR_UART1_Handler>:


//-- UART1 ISR
//
void Hw_ISR_UART1_Handler(void)
{
 8000fa4:	b500      	push	{lr}
	u8 UartData;
				
	UartData = REG_USART1_DR;
 8000fa6:	4805      	ldr	r0, [pc, #20]	; (8000fbc <Hw_ISR_UART1_Handler+0x18>)


//-- UART1 ISR
//
void Hw_ISR_UART1_Handler(void)
{
 8000fa8:	b083      	sub	sp, #12
	u8 UartData;
				
	UartData = REG_USART1_DR;
 8000faa:	6802      	ldr	r2, [r0, #0]
 8000fac:	a902      	add	r1, sp, #8
	
	Hw_Uart_Q_Push( 0, &UartData );
 8000fae:	2000      	movs	r0, #0
//
void Hw_ISR_UART1_Handler(void)
{
	u8 UartData;
				
	UartData = REG_USART1_DR;
 8000fb0:	f801 2d01 	strb.w	r2, [r1, #-1]!
	
	Hw_Uart_Q_Push( 0, &UartData );
 8000fb4:	4b02      	ldr	r3, [pc, #8]	; (8000fc0 <Hw_ISR_UART1_Handler+0x1c>)
 8000fb6:	4798      	blx	r3
}
 8000fb8:	b003      	add	sp, #12
 8000fba:	bd00      	pop	{pc}
 8000fbc:	40013804 	.word	0x40013804
 8000fc0:	080011ed 	.word	0x080011ed

08000fc4 <Hw_Uart_Open_COM1>:
     WORK    :
     ARG     : void
     RET     : void
---------------------------------------------------------------------------*/
void Hw_Uart_Open_COM1( u32 BaudData, void (*ISR_FuncPtr)(char Ch) )
{	
 8000fc4:	b570      	push	{r4, r5, r6, lr}
	Hw_Uart_Ch[HW_UART_COM1].ISR_FuncPtr = ISR_FuncPtr;
	
	
	//-- Clock Enable
	//
	SET_BIT( REG_RCC_APB2ENR, 14 );		// USART1 Clock Enable
 8000fc6:	4d12      	ldr	r5, [pc, #72]	; (8001010 <Hw_Uart_Open_COM1+0x4c>)
	//
	
	
	//-- USART1 설정
	//	
	REG_USART1_CR1  = 0 
 8000fc8:	4c12      	ldr	r4, [pc, #72]	; (8001014 <Hw_Uart_Open_COM1+0x50>)
	Hw_Uart_Ch[HW_UART_COM1].ISR_FuncPtr = ISR_FuncPtr;
	
	
	//-- Clock Enable
	//
	SET_BIT( REG_RCC_APB2ENR, 14 );		// USART1 Clock Enable
 8000fca:	682b      	ldr	r3, [r5, #0]
	REG_USART1_CR1  = 0 
					| ( 0 << 12 )		// 1 Start bit, 8 Data bits, n Stop bit
					| ( 0 << 10 )		// Parity control disabled
					| ( 1 <<  3 )		// Transmitter Enable
					| ( 1 <<  2 );		// Receiver Enable					
	REG_USART1_CR2  = ( 0 << 12 );		// 1 stop bit	
 8000fcc:	2200      	movs	r2, #0
	Hw_Uart_Ch[HW_UART_COM1].ISR_FuncPtr = ISR_FuncPtr;
	
	
	//-- Clock Enable
	//
	SET_BIT( REG_RCC_APB2ENR, 14 );		// USART1 Clock Enable
 8000fce:	f443 4680 	orr.w	r6, r3, #16384	; 0x4000
 8000fd2:	602e      	str	r6, [r5, #0]
	//
	
	
	//-- USART1 설정
	//	
	REG_USART1_CR1  = 0 
 8000fd4:	250c      	movs	r5, #12
 8000fd6:	6025      	str	r5, [r4, #0]
					| ( 0 << 12 )		// 1 Start bit, 8 Data bits, n Stop bit
					| ( 0 << 10 )		// Parity control disabled
					| ( 1 <<  3 )		// Transmitter Enable
					| ( 1 <<  2 );		// Receiver Enable					
	REG_USART1_CR2  = ( 0 << 12 );		// 1 stop bit	
 8000fd8:	4d0f      	ldr	r5, [pc, #60]	; (8001018 <Hw_Uart_Open_COM1+0x54>)
					| (  1 << 0 );		// DIV Fraction
	

	//-- 인터럽트 설정
	//
	SET_BIT( REG_NVIC_ISER( 37/32 ), 37-32 );	// NVIC 37번 USART1 인터럽트 활성화
 8000fda:	4b10      	ldr	r3, [pc, #64]	; (800101c <Hw_Uart_Open_COM1+0x58>)
	REG_USART1_CR3  = 0;
	
	
	//-- 115200bps로 통신 속도 설정
	//
	REG_USART1_BRR  = 0
 8000fdc:	f240 2671 	movw	r6, #625	; 0x271
	REG_USART1_CR1  = 0 
					| ( 0 << 12 )		// 1 Start bit, 8 Data bits, n Stop bit
					| ( 0 << 10 )		// Parity control disabled
					| ( 1 <<  3 )		// Transmitter Enable
					| ( 1 <<  2 );		// Receiver Enable					
	REG_USART1_CR2  = ( 0 << 12 );		// 1 stop bit	
 8000fe0:	602a      	str	r2, [r5, #0]
	REG_USART1_CR3  = 0;
 8000fe2:	606a      	str	r2, [r5, #4]
	
	
	//-- 115200bps로 통신 속도 설정
	//
	REG_USART1_BRR  = 0
 8000fe4:	f845 6c08 	str.w	r6, [r5, #-8]
					| (  1 << 0 );		// DIV Fraction
	

	//-- 인터럽트 설정
	//
	SET_BIT( REG_NVIC_ISER( 37/32 ), 37-32 );	// NVIC 37번 USART1 인터럽트 활성화
 8000fe8:	681e      	ldr	r6, [r3, #0]
     RET     : void
---------------------------------------------------------------------------*/
void Hw_Uart_Open_COM1( u32 BaudData, void (*ISR_FuncPtr)(char Ch) )
{	

	Hw_Uart_Ch[HW_UART_COM1].Baud 		 = BaudData;
 8000fea:	4d0d      	ldr	r5, [pc, #52]	; (8001020 <Hw_Uart_Open_COM1+0x5c>)
					| (  1 << 0 );		// DIV Fraction
	

	//-- 인터럽트 설정
	//
	SET_BIT( REG_NVIC_ISER( 37/32 ), 37-32 );	// NVIC 37번 USART1 인터럽트 활성화
 8000fec:	f046 0620 	orr.w	r6, r6, #32
 8000ff0:	601e      	str	r6, [r3, #0]
	SET_BIT( REG_USART1_CR1, 5 );				// RX 인터럽트 활성화
 8000ff2:	6823      	ldr	r3, [r4, #0]
     RET     : void
---------------------------------------------------------------------------*/
void Hw_Uart_Open_COM1( u32 BaudData, void (*ISR_FuncPtr)(char Ch) )
{	

	Hw_Uart_Ch[HW_UART_COM1].Baud 		 = BaudData;
 8000ff4:	6068      	str	r0, [r5, #4]
	

	//-- 인터럽트 설정
	//
	SET_BIT( REG_NVIC_ISER( 37/32 ), 37-32 );	// NVIC 37번 USART1 인터럽트 활성화
	SET_BIT( REG_USART1_CR1, 5 );				// RX 인터럽트 활성화
 8000ff6:	f043 0320 	orr.w	r3, r3, #32
---------------------------------------------------------------------------*/
void Hw_Uart_Open_COM1( u32 BaudData, void (*ISR_FuncPtr)(char Ch) )
{	

	Hw_Uart_Ch[HW_UART_COM1].Baud 		 = BaudData;
	Hw_Uart_Ch[HW_UART_COM1].ISR_FuncPtr = ISR_FuncPtr;
 8000ffa:	60a9      	str	r1, [r5, #8]
	//-- 인터럽트 설정
	//
	SET_BIT( REG_NVIC_ISER( 37/32 ), 37-32 );	// NVIC 37번 USART1 인터럽트 활성화
	SET_BIT( REG_USART1_CR1, 5 );				// RX 인터럽트 활성화
	
	Hw_ISR_SetIRQFunc( 37, (u32)Hw_ISR_UART1_Handler, 0 );
 8000ffc:	2025      	movs	r0, #37	; 0x25
	

	//-- 인터럽트 설정
	//
	SET_BIT( REG_NVIC_ISER( 37/32 ), 37-32 );	// NVIC 37번 USART1 인터럽트 활성화
	SET_BIT( REG_USART1_CR1, 5 );				// RX 인터럽트 활성화
 8000ffe:	6023      	str	r3, [r4, #0]
	
	Hw_ISR_SetIRQFunc( 37, (u32)Hw_ISR_UART1_Handler, 0 );
 8001000:	4908      	ldr	r1, [pc, #32]	; (8001024 <Hw_Uart_Open_COM1+0x60>)
 8001002:	4b09      	ldr	r3, [pc, #36]	; (8001028 <Hw_Uart_Open_COM1+0x64>)
 8001004:	4798      	blx	r3
	
	REG_USART1_CR1 |= ( 1 << 13 );	    // USART Enable
 8001006:	6820      	ldr	r0, [r4, #0]
 8001008:	f440 5300 	orr.w	r3, r0, #8192	; 0x2000
 800100c:	6023      	str	r3, [r4, #0]
}
 800100e:	bd70      	pop	{r4, r5, r6, pc}
 8001010:	40021018 	.word	0x40021018
 8001014:	4001380c 	.word	0x4001380c
 8001018:	40013810 	.word	0x40013810
 800101c:	e000e104 	.word	0xe000e104
 8001020:	2000007c 	.word	0x2000007c
 8001024:	08000fa5 	.word	0x08000fa5
 8001028:	080012e1 	.word	0x080012e1

0800102c <Hw_Uart_Open>:
     WORK    :
     ARG     : void
     RET     : void
---------------------------------------------------------------------------*/
void Hw_Uart_Open( u8 Ch, u32 BaudData, void (*ISR_FuncPtr)(char Ch) )
{	
 800102c:	b508      	push	{r3, lr}
	switch( Ch )
 800102e:	b918      	cbnz	r0, 8001038 <Hw_Uart_Open+0xc>
	{
		case HW_UART_COM1:
			Hw_Uart_Open_COM1( BaudData, ISR_FuncPtr );
 8001030:	4608      	mov	r0, r1
 8001032:	4b02      	ldr	r3, [pc, #8]	; (800103c <Hw_Uart_Open+0x10>)
 8001034:	4611      	mov	r1, r2
 8001036:	4798      	blx	r3
 8001038:	bd08      	pop	{r3, pc}
 800103a:	bf00      	nop
 800103c:	08000fc5 	.word	0x08000fc5

08001040 <Hw_Uart_Init>:
     WORK    :
     ARG     : void
     RET     : void
---------------------------------------------------------------------------*/
void Hw_Uart_Init( void )
{
 8001040:	b510      	push	{r4, lr}
	u32 i;
	
	Hw_Uart_Q_Init();
 8001042:	480a      	ldr	r0, [pc, #40]	; (800106c <Hw_Uart_Init+0x2c>)
	
	
	for( i=0; i<HW_UART_MAX_CH; i++ )
	{
		Hw_Uart_Ch[i].Baud 		  = 0;
 8001044:	4c0a      	ldr	r4, [pc, #40]	; (8001070 <Hw_Uart_Init+0x30>)
---------------------------------------------------------------------------*/
void Hw_Uart_Init( void )
{
	u32 i;
	
	Hw_Uart_Q_Init();
 8001046:	4780      	blx	r0
	
	
	for( i=0; i<HW_UART_MAX_CH; i++ )
	{
		Hw_Uart_Ch[i].Baud 		  = 0;
 8001048:	2300      	movs	r3, #0
		Hw_Uart_Ch[i].ISR_FuncPtr = NULL;
	}	
	
	
	Hw_Uart_Open( HW_UART_COM1, 115200, NULL );
 800104a:	4618      	mov	r0, r3
 800104c:	461a      	mov	r2, r3
	Hw_Uart_Q_Init();
	
	
	for( i=0; i<HW_UART_MAX_CH; i++ )
	{
		Hw_Uart_Ch[i].Baud 		  = 0;
 800104e:	6063      	str	r3, [r4, #4]
		Hw_Uart_Ch[i].ISR_FuncPtr = NULL;
 8001050:	60a3      	str	r3, [r4, #8]
	Hw_Uart_Q_Init();
	
	
	for( i=0; i<HW_UART_MAX_CH; i++ )
	{
		Hw_Uart_Ch[i].Baud 		  = 0;
 8001052:	6123      	str	r3, [r4, #16]
		Hw_Uart_Ch[i].ISR_FuncPtr = NULL;
 8001054:	6163      	str	r3, [r4, #20]
	Hw_Uart_Q_Init();
	
	
	for( i=0; i<HW_UART_MAX_CH; i++ )
	{
		Hw_Uart_Ch[i].Baud 		  = 0;
 8001056:	61e3      	str	r3, [r4, #28]
		Hw_Uart_Ch[i].ISR_FuncPtr = NULL;
 8001058:	6223      	str	r3, [r4, #32]
	Hw_Uart_Q_Init();
	
	
	for( i=0; i<HW_UART_MAX_CH; i++ )
	{
		Hw_Uart_Ch[i].Baud 		  = 0;
 800105a:	62a3      	str	r3, [r4, #40]	; 0x28
		Hw_Uart_Ch[i].ISR_FuncPtr = NULL;
 800105c:	62e3      	str	r3, [r4, #44]	; 0x2c
	Hw_Uart_Q_Init();
	
	
	for( i=0; i<HW_UART_MAX_CH; i++ )
	{
		Hw_Uart_Ch[i].Baud 		  = 0;
 800105e:	6363      	str	r3, [r4, #52]	; 0x34
		Hw_Uart_Ch[i].ISR_FuncPtr = NULL;
 8001060:	63a3      	str	r3, [r4, #56]	; 0x38
	}	
	
	
	Hw_Uart_Open( HW_UART_COM1, 115200, NULL );
 8001062:	f44f 31e1 	mov.w	r1, #115200	; 0x1c200
 8001066:	4b03      	ldr	r3, [pc, #12]	; (8001074 <Hw_Uart_Init+0x34>)
 8001068:	4798      	blx	r3
}
 800106a:	bd10      	pop	{r4, pc}
 800106c:	080011a1 	.word	0x080011a1
 8001070:	2000007c 	.word	0x2000007c
 8001074:	0800102d 	.word	0x0800102d

08001078 <Hw_Uart_Getch>:
			: 시리얼 포트에서 문자 1바이트 읽는다.
     ARG
     RET
---------------------------------------------------------------------------*/
u8 Hw_Uart_Getch( u8 Ch )
{
 8001078:	b530      	push	{r4, r5, lr}
	u8 Uart_GetData = 0;
 800107a:	2300      	movs	r3, #0
			: 시리얼 포트에서 문자 1바이트 읽는다.
     ARG
     RET
---------------------------------------------------------------------------*/
u8 Hw_Uart_Getch( u8 Ch )
{
 800107c:	b083      	sub	sp, #12
 800107e:	4d08      	ldr	r5, [pc, #32]	; (80010a0 <Hw_Uart_Getch+0x28>)
 8001080:	4604      	mov	r4, r0
	u8 Uart_GetData = 0;
 8001082:	f88d 3007 	strb.w	r3, [sp, #7]

	while( 1 )
	{
		// 버퍼에 데이터 들어올때까지 기다린다.
		if( HW_UART_Q_VAILD(Ch) > 0 ) break;
 8001086:	4620      	mov	r0, r4
 8001088:	47a8      	blx	r5
 800108a:	2800      	cmp	r0, #0
 800108c:	d0fb      	beq.n	8001086 <Hw_Uart_Getch+0xe>
	}

	Hw_Uart_Q_Pop( Ch, &Uart_GetData );
 800108e:	4620      	mov	r0, r4
 8001090:	f10d 0107 	add.w	r1, sp, #7
 8001094:	4a03      	ldr	r2, [pc, #12]	; (80010a4 <Hw_Uart_Getch+0x2c>)
 8001096:	4790      	blx	r2

	return Uart_GetData;
}
 8001098:	f89d 0007 	ldrb.w	r0, [sp, #7]
 800109c:	b003      	add	sp, #12
 800109e:	bd30      	pop	{r4, r5, pc}
 80010a0:	080011b9 	.word	0x080011b9
 80010a4:	08001261 	.word	0x08001261

080010a8 <print_byte>:

//------------------------------- printf 포팅용 --------------------------------
//
void print_byte(unsigned int c)
{
	if (c == '\n') Hw_Uart_Putch(HW_UART_COM1, '\r');
 80010a8:	280a      	cmp	r0, #10
 80010aa:	d008      	beq.n	80010be <print_byte+0x16>
     ARG
     RET
---------------------------------------------------------------------------*/
void Hw_Uart_Putch( u8 Ch,  char Uart_PutData )
{
    while( !(REG_USART1_SR & 0x80) );
 80010ac:	4a08      	ldr	r2, [pc, #32]	; (80010d0 <print_byte+0x28>)
//
void print_byte(unsigned int c)
{
	if (c == '\n') Hw_Uart_Putch(HW_UART_COM1, '\r');
    
    Hw_Uart_Putch(HW_UART_COM1, c);
 80010ae:	b2c0      	uxtb	r0, r0
     ARG
     RET
---------------------------------------------------------------------------*/
void Hw_Uart_Putch( u8 Ch,  char Uart_PutData )
{
    while( !(REG_USART1_SR & 0x80) );
 80010b0:	6813      	ldr	r3, [r2, #0]
 80010b2:	f013 0f80 	tst.w	r3, #128	; 0x80
 80010b6:	d0fb      	beq.n	80010b0 <print_byte+0x8>
    
    REG_USART1_DR = Uart_PutData;
 80010b8:	4a06      	ldr	r2, [pc, #24]	; (80010d4 <print_byte+0x2c>)
 80010ba:	6010      	str	r0, [r2, #0]
void print_byte(unsigned int c)
{
	if (c == '\n') Hw_Uart_Putch(HW_UART_COM1, '\r');
    
    Hw_Uart_Putch(HW_UART_COM1, c);
}
 80010bc:	4770      	bx	lr
     ARG
     RET
---------------------------------------------------------------------------*/
void Hw_Uart_Putch( u8 Ch,  char Uart_PutData )
{
    while( !(REG_USART1_SR & 0x80) );
 80010be:	4a04      	ldr	r2, [pc, #16]	; (80010d0 <print_byte+0x28>)
 80010c0:	6813      	ldr	r3, [r2, #0]
 80010c2:	f013 0f80 	tst.w	r3, #128	; 0x80
 80010c6:	d0fb      	beq.n	80010c0 <print_byte+0x18>
    
    REG_USART1_DR = Uart_PutData;
 80010c8:	4902      	ldr	r1, [pc, #8]	; (80010d4 <print_byte+0x2c>)
 80010ca:	220d      	movs	r2, #13
 80010cc:	600a      	str	r2, [r1, #0]
 80010ce:	e7ed      	b.n	80010ac <print_byte+0x4>
 80010d0:	40013800 	.word	0x40013800
 80010d4:	40013804 	.word	0x40013804

080010d8 <get_byte>:
    Hw_Uart_Putch(HW_UART_COM1, c);
}


char get_byte(void)
{
 80010d8:	b508      	push	{r3, lr}
	char Ch;
	
	Ch = Hw_Uart_Getch(HW_UART_COM1);
 80010da:	2000      	movs	r0, #0
 80010dc:	4b01      	ldr	r3, [pc, #4]	; (80010e4 <get_byte+0xc>)
 80010de:	4798      	blx	r3
	
	return Ch;
}
 80010e0:	bd08      	pop	{r3, pc}
 80010e2:	bf00      	nop
 80010e4:	08001079 	.word	0x08001079

080010e8 <Hw_PLL_Init>:
{
	
#if	CLOCK_EXT == 1
	//-- PLL 설정 72Mhz로 설정함
	//
	REG_RCC_CFGR &= ~(0xF<<18 | 0x1<<17 | 0x1<<16);
 80010e8:	4b15      	ldr	r3, [pc, #84]	; (8001140 <Hw_PLL_Init+0x58>)
	REG_RCC_CFGR |=  (0x7<<18 | 0x1<<16);			// 8MHz
    REG_RCC_CR   |=  0x01 << 24;                    // PLLON
 80010ea:	4916      	ldr	r1, [pc, #88]	; (8001144 <Hw_PLL_Init+0x5c>)
{
	
#if	CLOCK_EXT == 1
	//-- PLL 설정 72Mhz로 설정함
	//
	REG_RCC_CFGR &= ~(0xF<<18 | 0x1<<17 | 0x1<<16);
 80010ec:	6818      	ldr	r0, [r3, #0]
	REG_RCC_CFGR |=  (0x7<<18 | 0x1<<16);			// 8MHz
    REG_RCC_CR   |=  0x01 << 24;                    // PLLON

	while( (REG_RCC_CR & (1<<25)) == 0 );			// PLLRDY
 80010ee:	460a      	mov	r2, r1
{
	
#if	CLOCK_EXT == 1
	//-- PLL 설정 72Mhz로 설정함
	//
	REG_RCC_CFGR &= ~(0xF<<18 | 0x1<<17 | 0x1<<16);
 80010f0:	f420 107c 	bic.w	r0, r0, #4128768	; 0x3f0000
 80010f4:	6018      	str	r0, [r3, #0]
	REG_RCC_CFGR |=  (0x7<<18 | 0x1<<16);			// 8MHz
 80010f6:	6818      	ldr	r0, [r3, #0]
 80010f8:	f440 10e8 	orr.w	r0, r0, #1900544	; 0x1d0000
 80010fc:	6018      	str	r0, [r3, #0]
    REG_RCC_CR   |=  0x01 << 24;                    // PLLON
 80010fe:	6808      	ldr	r0, [r1, #0]
 8001100:	f040 7380 	orr.w	r3, r0, #16777216	; 0x1000000
 8001104:	600b      	str	r3, [r1, #0]

	while( (REG_RCC_CR & (1<<25)) == 0 );			// PLLRDY
 8001106:	6811      	ldr	r1, [r2, #0]
 8001108:	f011 7f00 	tst.w	r1, #33554432	; 0x2000000
 800110c:	d0fb      	beq.n	8001106 <Hw_PLL_Init+0x1e>
    /////Bits 1:0 SW : System clock switch
    //00: HSI selected as system clock
    //01: HSE selected as system clock
    //10: PLL selected as system clock   <----------------- 선택됨
    //11: not allowed
	REG_RCC_CFGR &= ~0x3;
 800110e:	4b0c      	ldr	r3, [pc, #48]	; (8001140 <Hw_PLL_Init+0x58>)
 8001110:	6819      	ldr	r1, [r3, #0]
	REG_RCC_CFGR |=  0x2;
    
    while( (REG_RCC_CFGR & 0xC) != 0x08 );
 8001112:	461a      	mov	r2, r3
    /////Bits 1:0 SW : System clock switch
    //00: HSI selected as system clock
    //01: HSE selected as system clock
    //10: PLL selected as system clock   <----------------- 선택됨
    //11: not allowed
	REG_RCC_CFGR &= ~0x3;
 8001114:	f021 0003 	bic.w	r0, r1, #3
 8001118:	6018      	str	r0, [r3, #0]
	REG_RCC_CFGR |=  0x2;
 800111a:	6819      	ldr	r1, [r3, #0]
 800111c:	f041 0002 	orr.w	r0, r1, #2
 8001120:	6018      	str	r0, [r3, #0]
    
    while( (REG_RCC_CFGR & 0xC) != 0x08 );
 8001122:	6813      	ldr	r3, [r2, #0]
 8001124:	f003 0c0c 	and.w	ip, r3, #12
 8001128:	f1bc 0f08 	cmp.w	ip, #8
 800112c:	d1f9      	bne.n	8001122 <Hw_PLL_Init+0x3a>
    
    //APB2에 있는 UART 등 주변장치에 Clock 소스 동작제어
    //UART가 동작되기 위해서는 GPIO와 Alternation Function IO가 동작상태에 있어야 함
	REG_RCC_APB2ENR |= 0x1 << 14 | 0x1 << 4  | 0x1 << 3  | 0x1 << 2 | 0x1 << 0;         // UART/ IOPC EN / IOPB EN / IOPA EN / AFIO EN	
 800112e:	4a06      	ldr	r2, [pc, #24]	; (8001148 <Hw_PLL_Init+0x60>)
 8001130:	6813      	ldr	r3, [r2, #0]
 8001132:	f443 4180 	orr.w	r1, r3, #16384	; 0x4000
 8001136:	f041 001d 	orr.w	r0, r1, #29
 800113a:	6010      	str	r0, [r2, #0]
 800113c:	4770      	bx	lr
 800113e:	bf00      	nop
 8001140:	40021004 	.word	0x40021004
 8001144:	40021000 	.word	0x40021000
 8001148:	40021018 	.word	0x40021018

0800114c <Hw_Led_Init>:
{
	u32 PinNum;

	//-- JTAG 핀을 Disable하고 PB3,4를 GPIO로 사용한다.(핀구성에 따라 사용하지 않을수 있음)
	//
	REG_AFIO_MAPR &= ~(0x07 << 24);
 800114c:	4a0c      	ldr	r2, [pc, #48]	; (8001180 <Hw_Led_Init+0x34>)
	REG_AFIO_MAPR |=  (0x04 << 24);
	
	PinNum = 3;
	REG_GPIOB_CRL &= ~(0x0F << (PinNum*4+0));	// Clear
 800114e:	4b0d      	ldr	r3, [pc, #52]	; (8001184 <Hw_Led_Init+0x38>)
{
	u32 PinNum;

	//-- JTAG 핀을 Disable하고 PB3,4를 GPIO로 사용한다.(핀구성에 따라 사용하지 않을수 있음)
	//
	REG_AFIO_MAPR &= ~(0x07 << 24);
 8001150:	6810      	ldr	r0, [r2, #0]
void Hw_Led_Off( u8 Ch )
{
	switch( Ch )
	{
		case 0:
			SET_BIT( REG_GPIOB_ODR, 3 );
 8001152:	490d      	ldr	r1, [pc, #52]	; (8001188 <Hw_Led_Init+0x3c>)
{
	u32 PinNum;

	//-- JTAG 핀을 Disable하고 PB3,4를 GPIO로 사용한다.(핀구성에 따라 사용하지 않을수 있음)
	//
	REG_AFIO_MAPR &= ~(0x07 << 24);
 8001154:	f020 60e0 	bic.w	r0, r0, #117440512	; 0x7000000
 8001158:	6010      	str	r0, [r2, #0]
	REG_AFIO_MAPR |=  (0x04 << 24);
 800115a:	6810      	ldr	r0, [r2, #0]
 800115c:	f040 6080 	orr.w	r0, r0, #67108864	; 0x4000000
 8001160:	6010      	str	r0, [r2, #0]
	
	PinNum = 3;
	REG_GPIOB_CRL &= ~(0x0F << (PinNum*4+0));	// Clear
 8001162:	681a      	ldr	r2, [r3, #0]
 8001164:	f422 4070 	bic.w	r0, r2, #61440	; 0xf000
 8001168:	6018      	str	r0, [r3, #0]
	REG_GPIOB_CRL |=  (0x03 << (PinNum*4+0));	// MODE, PB.3 Output mode, max speed 50Mhz
 800116a:	681a      	ldr	r2, [r3, #0]
 800116c:	f442 5040 	orr.w	r0, r2, #12288	; 0x3000
 8001170:	6018      	str	r0, [r3, #0]
	REG_GPIOB_CRL |=  (0x00 << (PinNum*4+2));	// CNF,  PB.3 General purpose output push-pul
 8001172:	681a      	ldr	r2, [r3, #0]
 8001174:	601a      	str	r2, [r3, #0]
void Hw_Led_Off( u8 Ch )
{
	switch( Ch )
	{
		case 0:
			SET_BIT( REG_GPIOB_ODR, 3 );
 8001176:	6808      	ldr	r0, [r1, #0]
 8001178:	f040 0308 	orr.w	r3, r0, #8
 800117c:	600b      	str	r3, [r1, #0]
	REG_GPIOB_CRL |=  (0x03 << (PinNum*4+0));	// MODE, PB.3 Output mode, max speed 50Mhz
	REG_GPIOB_CRL |=  (0x00 << (PinNum*4+2));	// CNF,  PB.3 General purpose output push-pul
	
		
	Hw_Led_Off(0);
}
 800117e:	4770      	bx	lr
 8001180:	40010004 	.word	0x40010004
 8001184:	40010c00 	.word	0x40010c00
 8001188:	40010c0c 	.word	0x40010c0c

0800118c <Hw_Led_Toggle>:
     ARG     : void
     RET     : void
---------------------------------------------------------------------------*/
void Hw_Led_Toggle( u8 Ch )
{
	switch( Ch )
 800118c:	b920      	cbnz	r0, 8001198 <Hw_Led_Toggle+0xc>
	{
		case 0:
			TGL_BIT( REG_GPIOB_ODR, 3 );
 800118e:	4b03      	ldr	r3, [pc, #12]	; (800119c <Hw_Led_Toggle+0x10>)
 8001190:	6818      	ldr	r0, [r3, #0]
 8001192:	f080 0208 	eor.w	r2, r0, #8
 8001196:	601a      	str	r2, [r3, #0]
 8001198:	4770      	bx	lr
 800119a:	bf00      	nop
 800119c:	40010c0c 	.word	0x40010c0c

080011a0 <Hw_Uart_Q_Init>:
{
	u8 i;

	for( i=0; i<HW_UART_Q_CH_MAX; i++ )
	{
		Hw_Uart_Q_Start[i] = Hw_Uart_Q_End[i] = 0;
 80011a0:	4903      	ldr	r1, [pc, #12]	; (80011b0 <Hw_Uart_Q_Init+0x10>)
 80011a2:	4a04      	ldr	r2, [pc, #16]	; (80011b4 <Hw_Uart_Q_Init+0x14>)
 80011a4:	2300      	movs	r3, #0
 80011a6:	800b      	strh	r3, [r1, #0]
 80011a8:	8013      	strh	r3, [r2, #0]
 80011aa:	804b      	strh	r3, [r1, #2]
 80011ac:	8053      	strh	r3, [r2, #2]
	}
}
 80011ae:	4770      	bx	lr
 80011b0:	200000d4 	.word	0x200000d4
 80011b4:	200000d8 	.word	0x200000d8

080011b8 <HW_UART_Q_VAILD>:
     ARG     : void
     RET     : void
---------------------------------------------------------------------------*/
u32 HW_UART_Q_SIZE( u8 Ch )
{
	return (Hw_Uart_Q_Start[Ch] - Hw_Uart_Q_End[Ch] + HW_UART_Q_BUFFER_MAX) % HW_UART_Q_BUFFER_MAX;
 80011b8:	4b09      	ldr	r3, [pc, #36]	; (80011e0 <HW_UART_Q_VAILD+0x28>)
 80011ba:	4a0a      	ldr	r2, [pc, #40]	; (80011e4 <HW_UART_Q_VAILD+0x2c>)
 80011bc:	f933 3010 	ldrsh.w	r3, [r3, r0, lsl #1]
 80011c0:	f932 1010 	ldrsh.w	r1, [r2, r0, lsl #1]
 80011c4:	330a      	adds	r3, #10
 80011c6:	4808      	ldr	r0, [pc, #32]	; (80011e8 <HW_UART_Q_VAILD+0x30>)
 80011c8:	1a5b      	subs	r3, r3, r1
 80011ca:	fb80 2c03 	smull	r2, ip, r0, r3
 80011ce:	17da      	asrs	r2, r3, #31
 80011d0:	ebc2 01ac 	rsb	r1, r2, ip, asr #2
 80011d4:	eb01 0081 	add.w	r0, r1, r1, lsl #2
     RET     : void
---------------------------------------------------------------------------*/
u32 HW_UART_Q_VAILD( u8 Ch )
{
	return HW_UART_Q_SIZE(Ch);
}
 80011d8:	eba3 0040 	sub.w	r0, r3, r0, lsl #1
 80011dc:	4770      	bx	lr
 80011de:	bf00      	nop
 80011e0:	200000d8 	.word	0x200000d8
 80011e4:	200000d4 	.word	0x200000d4
 80011e8:	66666667 	.word	0x66666667

080011ec <Hw_Uart_Q_Push>:
     ARG     : void
     RET     : void
---------------------------------------------------------------------------*/
u32 HW_UART_Q_SIZE( u8 Ch )
{
	return (Hw_Uart_Q_Start[Ch] - Hw_Uart_Q_End[Ch] + HW_UART_Q_BUFFER_MAX) % HW_UART_Q_BUFFER_MAX;
 80011ec:	4b18      	ldr	r3, [pc, #96]	; (8001250 <Hw_Uart_Q_Push+0x64>)
     WORK    : 
     ARG     : void
     RET     : void
---------------------------------------------------------------------------*/
u8 Hw_Uart_Q_Push( u8 Ch, u8  *PushData )
{
 80011ee:	b4f0      	push	{r4, r5, r6, r7}
     ARG     : void
     RET     : void
---------------------------------------------------------------------------*/
u32 HW_UART_Q_SIZE( u8 Ch )
{
	return (Hw_Uart_Q_Start[Ch] - Hw_Uart_Q_End[Ch] + HW_UART_Q_BUFFER_MAX) % HW_UART_Q_BUFFER_MAX;
 80011f0:	4e18      	ldr	r6, [pc, #96]	; (8001254 <Hw_Uart_Q_Push+0x68>)
 80011f2:	f833 7010 	ldrh.w	r7, [r3, r0, lsl #1]
 80011f6:	f936 2010 	ldrsh.w	r2, [r6, r0, lsl #1]
 80011fa:	b23d      	sxth	r5, r7
 80011fc:	f105 040a 	add.w	r4, r5, #10
 8001200:	4e15      	ldr	r6, [pc, #84]	; (8001258 <Hw_Uart_Q_Push+0x6c>)
 8001202:	1aa2      	subs	r2, r4, r2
 8001204:	fb86 4c02 	smull	r4, ip, r6, r2
 8001208:	17d4      	asrs	r4, r2, #31
 800120a:	ebc4 04ac 	rsb	r4, r4, ip, asr #2
 800120e:	eb04 0484 	add.w	r4, r4, r4, lsl #2
 8001212:	eba2 0244 	sub.w	r2, r2, r4, lsl #1
     RET     : void
---------------------------------------------------------------------------*/
u8 Hw_Uart_Q_Push( u8 Ch, u8  *PushData )
{

	if (HW_UART_Q_SIZE(Ch) == (HW_UART_Q_BUFFER_MAX-1)) return FALSE;
 8001216:	2a09      	cmp	r2, #9
 8001218:	d017      	beq.n	800124a <Hw_Uart_Q_Push+0x5e>

	Hw_Uart_Q_Buffer[Ch][Hw_Uart_Q_Start[Ch]++]  = *PushData;
 800121a:	1c7c      	adds	r4, r7, #1
	Hw_Uart_Q_Start[Ch] 						%= HW_UART_Q_BUFFER_MAX;
 800121c:	b227      	sxth	r7, r4
 800121e:	fb86 2c07 	smull	r2, ip, r6, r7
 8001222:	17fc      	asrs	r4, r7, #31
u8 Hw_Uart_Q_Push( u8 Ch, u8  *PushData )
{

	if (HW_UART_Q_SIZE(Ch) == (HW_UART_Q_BUFFER_MAX-1)) return FALSE;

	Hw_Uart_Q_Buffer[Ch][Hw_Uart_Q_Start[Ch]++]  = *PushData;
 8001224:	eb00 0280 	add.w	r2, r0, r0, lsl #2
	Hw_Uart_Q_Start[Ch] 						%= HW_UART_Q_BUFFER_MAX;
 8001228:	ebc4 06ac 	rsb	r6, r4, ip, asr #2
u8 Hw_Uart_Q_Push( u8 Ch, u8  *PushData )
{

	if (HW_UART_Q_SIZE(Ch) == (HW_UART_Q_BUFFER_MAX-1)) return FALSE;

	Hw_Uart_Q_Buffer[Ch][Hw_Uart_Q_Start[Ch]++]  = *PushData;
 800122c:	7809      	ldrb	r1, [r1, #0]
 800122e:	eb00 0c42 	add.w	ip, r0, r2, lsl #1
	Hw_Uart_Q_Start[Ch] 						%= HW_UART_Q_BUFFER_MAX;
 8001232:	eb06 0686 	add.w	r6, r6, r6, lsl #2
u8 Hw_Uart_Q_Push( u8 Ch, u8  *PushData )
{

	if (HW_UART_Q_SIZE(Ch) == (HW_UART_Q_BUFFER_MAX-1)) return FALSE;

	Hw_Uart_Q_Buffer[Ch][Hw_Uart_Q_Start[Ch]++]  = *PushData;
 8001236:	4a09      	ldr	r2, [pc, #36]	; (800125c <Hw_Uart_Q_Push+0x70>)
 8001238:	4465      	add	r5, ip
	Hw_Uart_Q_Start[Ch] 						%= HW_UART_Q_BUFFER_MAX;
 800123a:	eba7 0746 	sub.w	r7, r7, r6, lsl #1
 800123e:	f823 7010 	strh.w	r7, [r3, r0, lsl #1]
u8 Hw_Uart_Q_Push( u8 Ch, u8  *PushData )
{

	if (HW_UART_Q_SIZE(Ch) == (HW_UART_Q_BUFFER_MAX-1)) return FALSE;

	Hw_Uart_Q_Buffer[Ch][Hw_Uart_Q_Start[Ch]++]  = *PushData;
 8001242:	5551      	strb	r1, [r2, r5]
	Hw_Uart_Q_Start[Ch] 						%= HW_UART_Q_BUFFER_MAX;

	return TRUE;
 8001244:	2001      	movs	r0, #1
}
 8001246:	bcf0      	pop	{r4, r5, r6, r7}
 8001248:	4770      	bx	lr
     RET     : void
---------------------------------------------------------------------------*/
u8 Hw_Uart_Q_Push( u8 Ch, u8  *PushData )
{

	if (HW_UART_Q_SIZE(Ch) == (HW_UART_Q_BUFFER_MAX-1)) return FALSE;
 800124a:	2000      	movs	r0, #0
 800124c:	e7fb      	b.n	8001246 <Hw_Uart_Q_Push+0x5a>
 800124e:	bf00      	nop
 8001250:	200000d8 	.word	0x200000d8
 8001254:	200000d4 	.word	0x200000d4
 8001258:	66666667 	.word	0x66666667
 800125c:	200000b8 	.word	0x200000b8

08001260 <Hw_Uart_Q_Pop>:
     WORK    :
     ARG     : void
     RET     : void
---------------------------------------------------------------------------*/
u8 Hw_Uart_Q_Pop( u8 Ch, u8 *pData )
{
 8001260:	b4f0      	push	{r4, r5, r6, r7}
     ARG     : void
     RET     : void
---------------------------------------------------------------------------*/
u32 HW_UART_Q_SIZE( u8 Ch )
{
	return (Hw_Uart_Q_Start[Ch] - Hw_Uart_Q_End[Ch] + HW_UART_Q_BUFFER_MAX) % HW_UART_Q_BUFFER_MAX;
 8001262:	4b17      	ldr	r3, [pc, #92]	; (80012c0 <Hw_Uart_Q_Pop+0x60>)
 8001264:	4d17      	ldr	r5, [pc, #92]	; (80012c4 <Hw_Uart_Q_Pop+0x64>)
 8001266:	f833 7010 	ldrh.w	r7, [r3, r0, lsl #1]
     WORK    :
     ARG     : void
     RET     : void
---------------------------------------------------------------------------*/
u8 Hw_Uart_Q_Pop( u8 Ch, u8 *pData )
{
 800126a:	4602      	mov	r2, r0
     ARG     : void
     RET     : void
---------------------------------------------------------------------------*/
u32 HW_UART_Q_SIZE( u8 Ch )
{
	return (Hw_Uart_Q_Start[Ch] - Hw_Uart_Q_End[Ch] + HW_UART_Q_BUFFER_MAX) % HW_UART_Q_BUFFER_MAX;
 800126c:	f935 0010 	ldrsh.w	r0, [r5, r0, lsl #1]
 8001270:	4e15      	ldr	r6, [pc, #84]	; (80012c8 <Hw_Uart_Q_Pop+0x68>)
 8001272:	300a      	adds	r0, #10
 8001274:	b23d      	sxth	r5, r7
 8001276:	1b40      	subs	r0, r0, r5
 8001278:	fb86 4c00 	smull	r4, ip, r6, r0
 800127c:	17c4      	asrs	r4, r0, #31
 800127e:	ebc4 04ac 	rsb	r4, r4, ip, asr #2
 8001282:	eb04 0484 	add.w	r4, r4, r4, lsl #2
     ARG     : void
     RET     : void
---------------------------------------------------------------------------*/
u8 Hw_Uart_Q_Pop( u8 Ch, u8 *pData )
{
	if (HW_UART_Q_SIZE(Ch) == 0) return FALSE;
 8001286:	ebb0 0044 	subs.w	r0, r0, r4, lsl #1
 800128a:	d017      	beq.n	80012bc <Hw_Uart_Q_Pop+0x5c>

	*pData = Hw_Uart_Q_Buffer[Ch][Hw_Uart_Q_End[Ch]++];
 800128c:	3701      	adds	r7, #1

	Hw_Uart_Q_End[Ch] %= HW_UART_Q_BUFFER_MAX;
 800128e:	b23f      	sxth	r7, r7
 8001290:	fb86 0c07 	smull	r0, ip, r6, r7
---------------------------------------------------------------------------*/
u8 Hw_Uart_Q_Pop( u8 Ch, u8 *pData )
{
	if (HW_UART_Q_SIZE(Ch) == 0) return FALSE;

	*pData = Hw_Uart_Q_Buffer[Ch][Hw_Uart_Q_End[Ch]++];
 8001294:	eb02 0482 	add.w	r4, r2, r2, lsl #2

	Hw_Uart_Q_End[Ch] %= HW_UART_Q_BUFFER_MAX;
 8001298:	17fe      	asrs	r6, r7, #31
---------------------------------------------------------------------------*/
u8 Hw_Uart_Q_Pop( u8 Ch, u8 *pData )
{
	if (HW_UART_Q_SIZE(Ch) == 0) return FALSE;

	*pData = Hw_Uart_Q_Buffer[Ch][Hw_Uart_Q_End[Ch]++];
 800129a:	480c      	ldr	r0, [pc, #48]	; (80012cc <Hw_Uart_Q_Pop+0x6c>)
 800129c:	eb02 0444 	add.w	r4, r2, r4, lsl #1

	Hw_Uart_Q_End[Ch] %= HW_UART_Q_BUFFER_MAX;
 80012a0:	ebc6 06ac 	rsb	r6, r6, ip, asr #2
---------------------------------------------------------------------------*/
u8 Hw_Uart_Q_Pop( u8 Ch, u8 *pData )
{
	if (HW_UART_Q_SIZE(Ch) == 0) return FALSE;

	*pData = Hw_Uart_Q_Buffer[Ch][Hw_Uart_Q_End[Ch]++];
 80012a4:	1965      	adds	r5, r4, r5
 80012a6:	f810 c005 	ldrb.w	ip, [r0, r5]

	Hw_Uart_Q_End[Ch] %= HW_UART_Q_BUFFER_MAX;
 80012aa:	eb06 0686 	add.w	r6, r6, r6, lsl #2
 80012ae:	eba7 0746 	sub.w	r7, r7, r6, lsl #1
---------------------------------------------------------------------------*/
u8 Hw_Uart_Q_Pop( u8 Ch, u8 *pData )
{
	if (HW_UART_Q_SIZE(Ch) == 0) return FALSE;

	*pData = Hw_Uart_Q_Buffer[Ch][Hw_Uart_Q_End[Ch]++];
 80012b2:	f881 c000 	strb.w	ip, [r1]

	Hw_Uart_Q_End[Ch] %= HW_UART_Q_BUFFER_MAX;

    return TRUE;
 80012b6:	2001      	movs	r0, #1
{
	if (HW_UART_Q_SIZE(Ch) == 0) return FALSE;

	*pData = Hw_Uart_Q_Buffer[Ch][Hw_Uart_Q_End[Ch]++];

	Hw_Uart_Q_End[Ch] %= HW_UART_Q_BUFFER_MAX;
 80012b8:	f823 7012 	strh.w	r7, [r3, r2, lsl #1]

    return TRUE;
}
 80012bc:	bcf0      	pop	{r4, r5, r6, r7}
 80012be:	4770      	bx	lr
 80012c0:	200000d4 	.word	0x200000d4
 80012c4:	200000d8 	.word	0x200000d8
 80012c8:	66666667 	.word	0x66666667
 80012cc:	200000b8 	.word	0x200000b8

080012d0 <Hw_ISR_Init>:
void Hw_ISR_Init( void )
{
	//-- 인터럽트 벡터를 0x00000000 에서 RAM 영역으로 이동
	//   인터럽트 함수를 동적으로 설정 가능토록 변경
	//
	REG_SCB_VTOR = (u32)Hw_ISR_VectorTable;
 80012d0:	4b01      	ldr	r3, [pc, #4]	; (80012d8 <Hw_ISR_Init+0x8>)
 80012d2:	4a02      	ldr	r2, [pc, #8]	; (80012dc <Hw_ISR_Init+0xc>)
 80012d4:	601a      	str	r2, [r3, #0]
}
 80012d6:	4770      	bx	lr
 80012d8:	e000ed08 	.word	0xe000ed08
 80012dc:	20000200 	.word	0x20000200

080012e0 <Hw_ISR_SetIRQFunc>:
---------------------------------------------------------------------------*/
void Hw_ISR_SetIRQFunc( u8 ISR_Num, u32 FuncAddress, u8 ISR_Priority )
{	
	u32 ISR_StartOffset = 16;
	
	Hw_ISR_VectorTable[ ISR_StartOffset + ISR_Num ] = FuncAddress;	
 80012e0:	4b02      	ldr	r3, [pc, #8]	; (80012ec <Hw_ISR_SetIRQFunc+0xc>)
 80012e2:	3010      	adds	r0, #16
 80012e4:	f843 1020 	str.w	r1, [r3, r0, lsl #2]
}
 80012e8:	4770      	bx	lr
 80012ea:	bf00      	nop
 80012ec:	20000200 	.word	0x20000200

080012f0 <Hw_ISR_SetIRQFuncByAddr>:
---------------------------------------------------------------------------*/
void Hw_ISR_SetIRQFuncByAddr( u32 ISR_Addr, u32 FuncAddress, u8 ISR_Priority )
{	
	u32 ISR_StartOffset = ISR_Addr/4;
	
	Hw_ISR_VectorTable[ ISR_StartOffset ] = FuncAddress;	
 80012f0:	4b02      	ldr	r3, [pc, #8]	; (80012fc <Hw_ISR_SetIRQFuncByAddr+0xc>)
     			u8  ISR_Priority : 인터럽트 우선순위(작은값이 우선순위 높음)
     RET     : void
---------------------------------------------------------------------------*/
void Hw_ISR_SetIRQFuncByAddr( u32 ISR_Addr, u32 FuncAddress, u8 ISR_Priority )
{	
	u32 ISR_StartOffset = ISR_Addr/4;
 80012f2:	0880      	lsrs	r0, r0, #2
	
	Hw_ISR_VectorTable[ ISR_StartOffset ] = FuncAddress;	
 80012f4:	f843 1020 	str.w	r1, [r3, r0, lsl #2]
}
 80012f8:	4770      	bx	lr
 80012fa:	bf00      	nop
 80012fc:	20000200 	.word	0x20000200

08001300 <Hw_Timer_SetupISR>:
     	 	 	 타이머 H/W 기능을 초기화 한다.
     ARG     : void
     RET     : void
---------------------------------------------------------------------------*/
void Hw_Timer_SetupISR( void )
{	
 8001300:	b508      	push	{r3, lr}
	Hw_ISR_SetIRQFuncByAddr( 0x003C, (u32)Hw_Timer_ISR, 0 );	
 8001302:	203c      	movs	r0, #60	; 0x3c
 8001304:	4902      	ldr	r1, [pc, #8]	; (8001310 <Hw_Timer_SetupISR+0x10>)
 8001306:	2200      	movs	r2, #0
 8001308:	4b02      	ldr	r3, [pc, #8]	; (8001314 <Hw_Timer_SetupISR+0x14>)
 800130a:	4798      	blx	r3
}
 800130c:	bd08      	pop	{r3, pc}
 800130e:	bf00      	nop
 8001310:	08001595 	.word	0x08001595
 8001314:	080012f1 	.word	0x080012f1

08001318 <Hw_Timer_Setup>:
     RET     : void
---------------------------------------------------------------------------*/
void Hw_Timer_Setup( void )
{

	REG_STK_LOAD = 72000 - 1;	// 72000000 / 72000 = 1000us = 1ms
 8001318:	4a09      	ldr	r2, [pc, #36]	; (8001340 <Hw_Timer_Setup+0x28>)
 800131a:	490a      	ldr	r1, [pc, #40]	; (8001344 <Hw_Timer_Setup+0x2c>)
	
	REG_STK_VAL  = 0;	
	
	SET_BIT( REG_STK_CTRL, 2 );	// CLKSOURCE = Processor Clock 72Mhz		
 800131c:	4b0a      	ldr	r3, [pc, #40]	; (8001348 <Hw_Timer_Setup+0x30>)
void Hw_Timer_Setup( void )
{

	REG_STK_LOAD = 72000 - 1;	// 72000000 / 72000 = 1000us = 1ms
	
	REG_STK_VAL  = 0;	
 800131e:	2000      	movs	r0, #0
     RET     : void
---------------------------------------------------------------------------*/
void Hw_Timer_Setup( void )
{

	REG_STK_LOAD = 72000 - 1;	// 72000000 / 72000 = 1000us = 1ms
 8001320:	6011      	str	r1, [r2, #0]
	
	REG_STK_VAL  = 0;	
 8001322:	6050      	str	r0, [r2, #4]
	
	SET_BIT( REG_STK_CTRL, 2 );	// CLKSOURCE = Processor Clock 72Mhz		
 8001324:	6819      	ldr	r1, [r3, #0]
 8001326:	f041 0004 	orr.w	r0, r1, #4
 800132a:	6018      	str	r0, [r3, #0]
	SET_BIT( REG_STK_CTRL, 1 );	// 인터럽트 활성화		
 800132c:	681a      	ldr	r2, [r3, #0]
 800132e:	f042 0102 	orr.w	r1, r2, #2
 8001332:	6019      	str	r1, [r3, #0]
	SET_BIT( REG_STK_CTRL, 0 );	// Counter Enable
 8001334:	6818      	ldr	r0, [r3, #0]
 8001336:	f040 0201 	orr.w	r2, r0, #1
 800133a:	601a      	str	r2, [r3, #0]
	
}
 800133c:	4770      	bx	lr
 800133e:	bf00      	nop
 8001340:	e000e014 	.word	0xe000e014
 8001344:	0001193f 	.word	0x0001193f
 8001348:	e000e010 	.word	0xe000e010

0800134c <Hw_Timer_Init>:
     WORK    :
     ARG     : void
     RET     : void
---------------------------------------------------------------------------*/
void Hw_Timer_Init( void )
{
 800134c:	b510      	push	{r4, lr}
	u8 i;
	static u8 Excute = 0;

	
	if( Excute == 1 ) return;  // 이미 한번 실행했다면 정지.
 800134e:	4c1a      	ldr	r4, [pc, #104]	; (80013b8 <Hw_Timer_Init+0x6c>)
 8001350:	7823      	ldrb	r3, [r4, #0]
 8001352:	2b01      	cmp	r3, #1
 8001354:	d02e      	beq.n	80013b4 <Hw_Timer_Init+0x68>
	
	
	// 구조체 초기화
	for(i=0; i<TIMER_MAX; i++)
	{
		Timer_Tbl[i].Timer_En   = OFF;
 8001356:	4b19      	ldr	r3, [pc, #100]	; (80013bc <Hw_Timer_Init+0x70>)
 8001358:	2000      	movs	r0, #0
 800135a:	7018      	strb	r0, [r3, #0]
		Timer_Tbl[i].Timer_Ctn  = 0;
 800135c:	8058      	strh	r0, [r3, #2]
		Timer_Tbl[i].Timer_Init = 0;
 800135e:	8098      	strh	r0, [r3, #4]
		Timer_Tbl[i].TmrFnct    = NULL;
 8001360:	6098      	str	r0, [r3, #8]
	
	
	// 구조체 초기화
	for(i=0; i<TIMER_MAX; i++)
	{
		Timer_Tbl[i].Timer_En   = OFF;
 8001362:	7418      	strb	r0, [r3, #16]
		Timer_Tbl[i].Timer_Ctn  = 0;
 8001364:	8258      	strh	r0, [r3, #18]
		Timer_Tbl[i].Timer_Init = 0;
 8001366:	8298      	strh	r0, [r3, #20]
		Timer_Tbl[i].TmrFnct    = NULL;
 8001368:	6198      	str	r0, [r3, #24]
	
	
	// 구조체 초기화
	for(i=0; i<TIMER_MAX; i++)
	{
		Timer_Tbl[i].Timer_En   = OFF;
 800136a:	f883 0020 	strb.w	r0, [r3, #32]
		Timer_Tbl[i].Timer_Ctn  = 0;
 800136e:	8458      	strh	r0, [r3, #34]	; 0x22
		Timer_Tbl[i].Timer_Init = 0;
 8001370:	8498      	strh	r0, [r3, #36]	; 0x24
		Timer_Tbl[i].TmrFnct    = NULL;
 8001372:	6298      	str	r0, [r3, #40]	; 0x28
	
	
	// 구조체 초기화
	for(i=0; i<TIMER_MAX; i++)
	{
		Timer_Tbl[i].Timer_En   = OFF;
 8001374:	f883 0030 	strb.w	r0, [r3, #48]	; 0x30
		Timer_Tbl[i].Timer_Ctn  = 0;
 8001378:	8658      	strh	r0, [r3, #50]	; 0x32
		Timer_Tbl[i].Timer_Init = 0;
 800137a:	8698      	strh	r0, [r3, #52]	; 0x34
		Timer_Tbl[i].TmrFnct    = NULL;
 800137c:	6398      	str	r0, [r3, #56]	; 0x38
	
	
	// 구조체 초기화
	for(i=0; i<TIMER_MAX; i++)
	{
		Timer_Tbl[i].Timer_En   = OFF;
 800137e:	f883 0040 	strb.w	r0, [r3, #64]	; 0x40
		Timer_Tbl[i].Timer_Ctn  = 0;
 8001382:	f8a3 0042 	strh.w	r0, [r3, #66]	; 0x42
		Timer_Tbl[i].Timer_Init = 0;
 8001386:	f8a3 0044 	strh.w	r0, [r3, #68]	; 0x44
		Timer_Tbl[i].TmrFnct    = NULL;
 800138a:	6498      	str	r0, [r3, #72]	; 0x48
	
	
	// 구조체 초기화
	for(i=0; i<TIMER_MAX; i++)
	{
		Timer_Tbl[i].Timer_En   = OFF;
 800138c:	f883 0050 	strb.w	r0, [r3, #80]	; 0x50
		Timer_Tbl[i].Timer_Ctn  = 0;
 8001390:	f8a3 0052 	strh.w	r0, [r3, #82]	; 0x52
		Timer_Tbl[i].Timer_Init = 0;
 8001394:	f8a3 0054 	strh.w	r0, [r3, #84]	; 0x54
		Timer_Tbl[i].TmrFnct    = NULL;
 8001398:	6598      	str	r0, [r3, #88]	; 0x58
	
	
	// 구조체 초기화
	for(i=0; i<TIMER_MAX; i++)
	{
		Timer_Tbl[i].Timer_En   = OFF;
 800139a:	f883 0060 	strb.w	r0, [r3, #96]	; 0x60
		Timer_Tbl[i].Timer_Ctn  = 0;
 800139e:	f8a3 0062 	strh.w	r0, [r3, #98]	; 0x62
		Timer_Tbl[i].Timer_Init = 0;
 80013a2:	f8a3 0064 	strh.w	r0, [r3, #100]	; 0x64
		Timer_Tbl[i].TmrFnct    = NULL;
 80013a6:	6698      	str	r0, [r3, #104]	; 0x68
	}	                   
	
	
	Hw_Timer_SetupISR();
 80013a8:	4a05      	ldr	r2, [pc, #20]	; (80013c0 <Hw_Timer_Init+0x74>)
 80013aa:	4790      	blx	r2
	Hw_Timer_Setup();	
 80013ac:	4905      	ldr	r1, [pc, #20]	; (80013c4 <Hw_Timer_Init+0x78>)
 80013ae:	4788      	blx	r1

	Excute = 1;
 80013b0:	2001      	movs	r0, #1
 80013b2:	7020      	strb	r0, [r4, #0]
 80013b4:	bd10      	pop	{r4, pc}
 80013b6:	bf00      	nop
 80013b8:	20000070 	.word	0x20000070
 80013bc:	20000000 	.word	0x20000000
 80013c0:	08001301 	.word	0x08001301
 80013c4:	08001319 	.word	0x08001319

080013c8 <Hw_Timer_Tick>:
			타이머인터럽트 발생시에 실행되는 함수(1ms 혹은 10ms 단위로 실행)
     ARG	: void
     RET	: void
---------------------------------------------------------------------------*/
void Hw_Timer_Tick(void)
{
 80013c8:	b510      	push	{r4, lr}
	u8 i;

	
	Hw_Timer_Counter++;
 80013ca:	4c6f      	ldr	r4, [pc, #444]	; (8001588 <Hw_Timer_Tick+0x1c0>)


	if( Tmr_Ctn ) Tmr_Ctn--;
 80013cc:	4a6f      	ldr	r2, [pc, #444]	; (800158c <Hw_Timer_Tick+0x1c4>)
void Hw_Timer_Tick(void)
{
	u8 i;

	
	Hw_Timer_Counter++;
 80013ce:	6823      	ldr	r3, [r4, #0]
 80013d0:	1c59      	adds	r1, r3, #1
 80013d2:	6021      	str	r1, [r4, #0]


	if( Tmr_Ctn ) Tmr_Ctn--;
 80013d4:	8810      	ldrh	r0, [r2, #0]
 80013d6:	b283      	uxth	r3, r0
 80013d8:	b113      	cbz	r3, 80013e0 <Hw_Timer_Tick+0x18>
 80013da:	8811      	ldrh	r1, [r2, #0]
 80013dc:	1e48      	subs	r0, r1, #1
 80013de:	8010      	strh	r0, [r2, #0]
	
	
			   
	for(i=0; i<TIMER_MAX; i++)								// 타이머 갯수만큼
	{
		if( Timer_Tbl[i].Timer_En == ON)   					// 타이머가 활성화 榮?
 80013e0:	4c6b      	ldr	r4, [pc, #428]	; (8001590 <Hw_Timer_Tick+0x1c8>)
 80013e2:	7822      	ldrb	r2, [r4, #0]
 80013e4:	2a01      	cmp	r2, #1
 80013e6:	d01e      	beq.n	8001426 <Hw_Timer_Tick+0x5e>
 80013e8:	7c23      	ldrb	r3, [r4, #16]
 80013ea:	4a69      	ldr	r2, [pc, #420]	; (8001590 <Hw_Timer_Tick+0x1c8>)
 80013ec:	2b01      	cmp	r3, #1
 80013ee:	d030      	beq.n	8001452 <Hw_Timer_Tick+0x8a>
 80013f0:	f894 3020 	ldrb.w	r3, [r4, #32]
 80013f4:	4a66      	ldr	r2, [pc, #408]	; (8001590 <Hw_Timer_Tick+0x1c8>)
 80013f6:	2b01      	cmp	r3, #1
 80013f8:	d041      	beq.n	800147e <Hw_Timer_Tick+0xb6>
 80013fa:	f894 3030 	ldrb.w	r3, [r4, #48]	; 0x30
 80013fe:	4a64      	ldr	r2, [pc, #400]	; (8001590 <Hw_Timer_Tick+0x1c8>)
 8001400:	2b01      	cmp	r3, #1
 8001402:	d052      	beq.n	80014aa <Hw_Timer_Tick+0xe2>
 8001404:	f894 3040 	ldrb.w	r3, [r4, #64]	; 0x40
 8001408:	4a61      	ldr	r2, [pc, #388]	; (8001590 <Hw_Timer_Tick+0x1c8>)
 800140a:	2b01      	cmp	r3, #1
 800140c:	d063      	beq.n	80014d6 <Hw_Timer_Tick+0x10e>
 800140e:	f894 3050 	ldrb.w	r3, [r4, #80]	; 0x50
 8001412:	4a5f      	ldr	r2, [pc, #380]	; (8001590 <Hw_Timer_Tick+0x1c8>)
 8001414:	2b01      	cmp	r3, #1
 8001416:	d076      	beq.n	8001506 <Hw_Timer_Tick+0x13e>
 8001418:	f894 3060 	ldrb.w	r3, [r4, #96]	; 0x60
 800141c:	4a5c      	ldr	r2, [pc, #368]	; (8001590 <Hw_Timer_Tick+0x1c8>)
 800141e:	2b01      	cmp	r3, #1
 8001420:	f000 808a 	beq.w	8001538 <Hw_Timer_Tick+0x170>
 8001424:	bd10      	pop	{r4, pc}
		{
			Timer_Tbl[i].Timer_Ctn--;  						// 타이머값 감소
 8001426:	8860      	ldrh	r0, [r4, #2]
 8001428:	1e43      	subs	r3, r0, #1
 800142a:	b29b      	uxth	r3, r3
 800142c:	8063      	strh	r3, [r4, #2]

			if(Timer_Tbl[i].Timer_Ctn == 0) 				// 타이머 오버플로어
 800142e:	2b00      	cmp	r3, #0
 8001430:	d1da      	bne.n	80013e8 <Hw_Timer_Tick+0x20>
			{
				if(Timer_Tbl[i].Timer_Mode == ONE_TIME)  	// 한번만 실행하는거면
 8001432:	f894 c001 	ldrb.w	ip, [r4, #1]
 8001436:	f1bc 0f01 	cmp.w	ip, #1
 800143a:	f000 8096 	beq.w	800156a <Hw_Timer_Tick+0x1a2>

				Timer_Tbl[i].Timer_En = OFF;     			// 타이머 OFF 한다.

				Timer_Tbl[i].Timer_Ctn = Timer_Tbl[i].Timer_Init; // 타이머 초기화
 800143e:	f8b4 e004 	ldrh.w	lr, [r4, #4]

				(*Timer_Tbl[i].TmrFnct)();  				// 전달변수 없이 함수 실행
 8001442:	68a1      	ldr	r1, [r4, #8]
			{
				if(Timer_Tbl[i].Timer_Mode == ONE_TIME)  	// 한번만 실행하는거면

				Timer_Tbl[i].Timer_En = OFF;     			// 타이머 OFF 한다.

				Timer_Tbl[i].Timer_Ctn = Timer_Tbl[i].Timer_Init; // 타이머 초기화
 8001444:	f8a4 e002 	strh.w	lr, [r4, #2]

				(*Timer_Tbl[i].TmrFnct)();  				// 전달변수 없이 함수 실행
 8001448:	4788      	blx	r1
	
	
			   
	for(i=0; i<TIMER_MAX; i++)								// 타이머 갯수만큼
	{
		if( Timer_Tbl[i].Timer_En == ON)   					// 타이머가 활성화 榮?
 800144a:	7c23      	ldrb	r3, [r4, #16]
 800144c:	4a50      	ldr	r2, [pc, #320]	; (8001590 <Hw_Timer_Tick+0x1c8>)
 800144e:	2b01      	cmp	r3, #1
 8001450:	d1ce      	bne.n	80013f0 <Hw_Timer_Tick+0x28>
		{
			Timer_Tbl[i].Timer_Ctn--;  						// 타이머값 감소
 8001452:	8a51      	ldrh	r1, [r2, #18]
 8001454:	1e48      	subs	r0, r1, #1
 8001456:	b283      	uxth	r3, r0
 8001458:	8253      	strh	r3, [r2, #18]

			if(Timer_Tbl[i].Timer_Ctn == 0) 				// 타이머 오버플로어
 800145a:	2b00      	cmp	r3, #0
 800145c:	d1c8      	bne.n	80013f0 <Hw_Timer_Tick+0x28>
			{
				if(Timer_Tbl[i].Timer_Mode == ONE_TIME)  	// 한번만 실행하는거면
 800145e:	f892 c011 	ldrb.w	ip, [r2, #17]
 8001462:	f1bc 0f01 	cmp.w	ip, #1
 8001466:	d07e      	beq.n	8001566 <Hw_Timer_Tick+0x19e>

				Timer_Tbl[i].Timer_En = OFF;     			// 타이머 OFF 한다.

				Timer_Tbl[i].Timer_Ctn = Timer_Tbl[i].Timer_Init; // 타이머 초기화
 8001468:	f8b4 e014 	ldrh.w	lr, [r4, #20]

				(*Timer_Tbl[i].TmrFnct)();  				// 전달변수 없이 함수 실행
 800146c:	69a2      	ldr	r2, [r4, #24]
			{
				if(Timer_Tbl[i].Timer_Mode == ONE_TIME)  	// 한번만 실행하는거면

				Timer_Tbl[i].Timer_En = OFF;     			// 타이머 OFF 한다.

				Timer_Tbl[i].Timer_Ctn = Timer_Tbl[i].Timer_Init; // 타이머 초기화
 800146e:	f8a4 e012 	strh.w	lr, [r4, #18]

				(*Timer_Tbl[i].TmrFnct)();  				// 전달변수 없이 함수 실행
 8001472:	4790      	blx	r2
	
	
			   
	for(i=0; i<TIMER_MAX; i++)								// 타이머 갯수만큼
	{
		if( Timer_Tbl[i].Timer_En == ON)   					// 타이머가 활성화 榮?
 8001474:	f894 3020 	ldrb.w	r3, [r4, #32]
 8001478:	4a45      	ldr	r2, [pc, #276]	; (8001590 <Hw_Timer_Tick+0x1c8>)
 800147a:	2b01      	cmp	r3, #1
 800147c:	d1bd      	bne.n	80013fa <Hw_Timer_Tick+0x32>
		{
			Timer_Tbl[i].Timer_Ctn--;  						// 타이머값 감소
 800147e:	8c51      	ldrh	r1, [r2, #34]	; 0x22
 8001480:	1e48      	subs	r0, r1, #1
 8001482:	b283      	uxth	r3, r0
 8001484:	8453      	strh	r3, [r2, #34]	; 0x22

			if(Timer_Tbl[i].Timer_Ctn == 0) 				// 타이머 오버플로어
 8001486:	2b00      	cmp	r3, #0
 8001488:	d1b7      	bne.n	80013fa <Hw_Timer_Tick+0x32>
			{
				if(Timer_Tbl[i].Timer_Mode == ONE_TIME)  	// 한번만 실행하는거면
 800148a:	f892 c021 	ldrb.w	ip, [r2, #33]	; 0x21
 800148e:	f1bc 0f01 	cmp.w	ip, #1
 8001492:	d075      	beq.n	8001580 <Hw_Timer_Tick+0x1b8>

				Timer_Tbl[i].Timer_En = OFF;     			// 타이머 OFF 한다.

				Timer_Tbl[i].Timer_Ctn = Timer_Tbl[i].Timer_Init; // 타이머 초기화
 8001494:	f8b4 e024 	ldrh.w	lr, [r4, #36]	; 0x24

				(*Timer_Tbl[i].TmrFnct)();  				// 전달변수 없이 함수 실행
 8001498:	6aa2      	ldr	r2, [r4, #40]	; 0x28
			{
				if(Timer_Tbl[i].Timer_Mode == ONE_TIME)  	// 한번만 실행하는거면

				Timer_Tbl[i].Timer_En = OFF;     			// 타이머 OFF 한다.

				Timer_Tbl[i].Timer_Ctn = Timer_Tbl[i].Timer_Init; // 타이머 초기화
 800149a:	f8a4 e022 	strh.w	lr, [r4, #34]	; 0x22

				(*Timer_Tbl[i].TmrFnct)();  				// 전달변수 없이 함수 실행
 800149e:	4790      	blx	r2
	
	
			   
	for(i=0; i<TIMER_MAX; i++)								// 타이머 갯수만큼
	{
		if( Timer_Tbl[i].Timer_En == ON)   					// 타이머가 활성화 榮?
 80014a0:	f894 3030 	ldrb.w	r3, [r4, #48]	; 0x30
 80014a4:	4a3a      	ldr	r2, [pc, #232]	; (8001590 <Hw_Timer_Tick+0x1c8>)
 80014a6:	2b01      	cmp	r3, #1
 80014a8:	d1ac      	bne.n	8001404 <Hw_Timer_Tick+0x3c>
		{
			Timer_Tbl[i].Timer_Ctn--;  						// 타이머값 감소
 80014aa:	8e51      	ldrh	r1, [r2, #50]	; 0x32
 80014ac:	1e48      	subs	r0, r1, #1
 80014ae:	b283      	uxth	r3, r0
 80014b0:	8653      	strh	r3, [r2, #50]	; 0x32

			if(Timer_Tbl[i].Timer_Ctn == 0) 				// 타이머 오버플로어
 80014b2:	2b00      	cmp	r3, #0
 80014b4:	d1a6      	bne.n	8001404 <Hw_Timer_Tick+0x3c>
			{
				if(Timer_Tbl[i].Timer_Mode == ONE_TIME)  	// 한번만 실행하는거면
 80014b6:	f892 c031 	ldrb.w	ip, [r2, #49]	; 0x31
 80014ba:	f1bc 0f01 	cmp.w	ip, #1
 80014be:	d05c      	beq.n	800157a <Hw_Timer_Tick+0x1b2>

				Timer_Tbl[i].Timer_En = OFF;     			// 타이머 OFF 한다.

				Timer_Tbl[i].Timer_Ctn = Timer_Tbl[i].Timer_Init; // 타이머 초기화
 80014c0:	f8b4 e034 	ldrh.w	lr, [r4, #52]	; 0x34

				(*Timer_Tbl[i].TmrFnct)();  				// 전달변수 없이 함수 실행
 80014c4:	6ba2      	ldr	r2, [r4, #56]	; 0x38
			{
				if(Timer_Tbl[i].Timer_Mode == ONE_TIME)  	// 한번만 실행하는거면

				Timer_Tbl[i].Timer_En = OFF;     			// 타이머 OFF 한다.

				Timer_Tbl[i].Timer_Ctn = Timer_Tbl[i].Timer_Init; // 타이머 초기화
 80014c6:	f8a4 e032 	strh.w	lr, [r4, #50]	; 0x32

				(*Timer_Tbl[i].TmrFnct)();  				// 전달변수 없이 함수 실행
 80014ca:	4790      	blx	r2
	
	
			   
	for(i=0; i<TIMER_MAX; i++)								// 타이머 갯수만큼
	{
		if( Timer_Tbl[i].Timer_En == ON)   					// 타이머가 활성화 榮?
 80014cc:	f894 3040 	ldrb.w	r3, [r4, #64]	; 0x40
 80014d0:	4a2f      	ldr	r2, [pc, #188]	; (8001590 <Hw_Timer_Tick+0x1c8>)
 80014d2:	2b01      	cmp	r3, #1
 80014d4:	d19b      	bne.n	800140e <Hw_Timer_Tick+0x46>
		{
			Timer_Tbl[i].Timer_Ctn--;  						// 타이머값 감소
 80014d6:	f8b2 1042 	ldrh.w	r1, [r2, #66]	; 0x42
 80014da:	1e48      	subs	r0, r1, #1
 80014dc:	b283      	uxth	r3, r0
 80014de:	f8a2 3042 	strh.w	r3, [r2, #66]	; 0x42

			if(Timer_Tbl[i].Timer_Ctn == 0) 				// 타이머 오버플로어
 80014e2:	2b00      	cmp	r3, #0
 80014e4:	d193      	bne.n	800140e <Hw_Timer_Tick+0x46>
			{
				if(Timer_Tbl[i].Timer_Mode == ONE_TIME)  	// 한번만 실행하는거면
 80014e6:	f892 c041 	ldrb.w	ip, [r2, #65]	; 0x41
 80014ea:	f1bc 0f01 	cmp.w	ip, #1
 80014ee:	d041      	beq.n	8001574 <Hw_Timer_Tick+0x1ac>

				Timer_Tbl[i].Timer_En = OFF;     			// 타이머 OFF 한다.

				Timer_Tbl[i].Timer_Ctn = Timer_Tbl[i].Timer_Init; // 타이머 초기화
 80014f0:	f8b4 e044 	ldrh.w	lr, [r4, #68]	; 0x44

				(*Timer_Tbl[i].TmrFnct)();  				// 전달변수 없이 함수 실행
 80014f4:	6ca2      	ldr	r2, [r4, #72]	; 0x48
			{
				if(Timer_Tbl[i].Timer_Mode == ONE_TIME)  	// 한번만 실행하는거면

				Timer_Tbl[i].Timer_En = OFF;     			// 타이머 OFF 한다.

				Timer_Tbl[i].Timer_Ctn = Timer_Tbl[i].Timer_Init; // 타이머 초기화
 80014f6:	f8a4 e042 	strh.w	lr, [r4, #66]	; 0x42

				(*Timer_Tbl[i].TmrFnct)();  				// 전달변수 없이 함수 실행
 80014fa:	4790      	blx	r2
	
	
			   
	for(i=0; i<TIMER_MAX; i++)								// 타이머 갯수만큼
	{
		if( Timer_Tbl[i].Timer_En == ON)   					// 타이머가 활성화 榮?
 80014fc:	f894 3050 	ldrb.w	r3, [r4, #80]	; 0x50
 8001500:	4a23      	ldr	r2, [pc, #140]	; (8001590 <Hw_Timer_Tick+0x1c8>)
 8001502:	2b01      	cmp	r3, #1
 8001504:	d188      	bne.n	8001418 <Hw_Timer_Tick+0x50>
		{
			Timer_Tbl[i].Timer_Ctn--;  						// 타이머값 감소
 8001506:	f8b2 1052 	ldrh.w	r1, [r2, #82]	; 0x52
 800150a:	1e48      	subs	r0, r1, #1
 800150c:	b283      	uxth	r3, r0
 800150e:	f8a2 3052 	strh.w	r3, [r2, #82]	; 0x52

			if(Timer_Tbl[i].Timer_Ctn == 0) 				// 타이머 오버플로어
 8001512:	2b00      	cmp	r3, #0
 8001514:	d180      	bne.n	8001418 <Hw_Timer_Tick+0x50>
			{
				if(Timer_Tbl[i].Timer_Mode == ONE_TIME)  	// 한번만 실행하는거면
 8001516:	f892 c051 	ldrb.w	ip, [r2, #81]	; 0x51
 800151a:	f1bc 0f01 	cmp.w	ip, #1
 800151e:	d026      	beq.n	800156e <Hw_Timer_Tick+0x1a6>

				Timer_Tbl[i].Timer_En = OFF;     			// 타이머 OFF 한다.

				Timer_Tbl[i].Timer_Ctn = Timer_Tbl[i].Timer_Init; // 타이머 초기화
 8001520:	f8b4 e054 	ldrh.w	lr, [r4, #84]	; 0x54

				(*Timer_Tbl[i].TmrFnct)();  				// 전달변수 없이 함수 실행
 8001524:	6da2      	ldr	r2, [r4, #88]	; 0x58
			{
				if(Timer_Tbl[i].Timer_Mode == ONE_TIME)  	// 한번만 실행하는거면

				Timer_Tbl[i].Timer_En = OFF;     			// 타이머 OFF 한다.

				Timer_Tbl[i].Timer_Ctn = Timer_Tbl[i].Timer_Init; // 타이머 초기화
 8001526:	f8a4 e052 	strh.w	lr, [r4, #82]	; 0x52

				(*Timer_Tbl[i].TmrFnct)();  				// 전달변수 없이 함수 실행
 800152a:	4790      	blx	r2
	
	
			   
	for(i=0; i<TIMER_MAX; i++)								// 타이머 갯수만큼
	{
		if( Timer_Tbl[i].Timer_En == ON)   					// 타이머가 활성화 榮?
 800152c:	f894 3060 	ldrb.w	r3, [r4, #96]	; 0x60
 8001530:	4a17      	ldr	r2, [pc, #92]	; (8001590 <Hw_Timer_Tick+0x1c8>)
 8001532:	2b01      	cmp	r3, #1
 8001534:	f47f af76 	bne.w	8001424 <Hw_Timer_Tick+0x5c>
		{
			Timer_Tbl[i].Timer_Ctn--;  						// 타이머값 감소
 8001538:	f8b2 1062 	ldrh.w	r1, [r2, #98]	; 0x62
 800153c:	1e48      	subs	r0, r1, #1
 800153e:	b283      	uxth	r3, r0
 8001540:	f8a2 3062 	strh.w	r3, [r2, #98]	; 0x62

			if(Timer_Tbl[i].Timer_Ctn == 0) 				// 타이머 오버플로어
 8001544:	2b00      	cmp	r3, #0
 8001546:	f47f af6d 	bne.w	8001424 <Hw_Timer_Tick+0x5c>
			{
				if(Timer_Tbl[i].Timer_Mode == ONE_TIME)  	// 한번만 실행하는거면
 800154a:	f892 e061 	ldrb.w	lr, [r2, #97]	; 0x61

				Timer_Tbl[i].Timer_En = OFF;     			// 타이머 OFF 한다.

				Timer_Tbl[i].Timer_Ctn = Timer_Tbl[i].Timer_Init; // 타이머 초기화
 800154e:	f8b4 c064 	ldrh.w	ip, [r4, #100]	; 0x64
		{
			Timer_Tbl[i].Timer_Ctn--;  						// 타이머값 감소

			if(Timer_Tbl[i].Timer_Ctn == 0) 				// 타이머 오버플로어
			{
				if(Timer_Tbl[i].Timer_Mode == ONE_TIME)  	// 한번만 실행하는거면
 8001552:	f1be 0f01 	cmp.w	lr, #1

				Timer_Tbl[i].Timer_En = OFF;     			// 타이머 OFF 한다.
 8001556:	bf08      	it	eq
 8001558:	f882 3060 	strbeq.w	r3, [r2, #96]	; 0x60

				Timer_Tbl[i].Timer_Ctn = Timer_Tbl[i].Timer_Init; // 타이머 초기화
 800155c:	f8a4 c062 	strh.w	ip, [r4, #98]	; 0x62

				(*Timer_Tbl[i].TmrFnct)();  				// 전달변수 없이 함수 실행
 8001560:	6ea2      	ldr	r2, [r4, #104]	; 0x68
 8001562:	4790      	blx	r2
 8001564:	bd10      	pop	{r4, pc}

			if(Timer_Tbl[i].Timer_Ctn == 0) 				// 타이머 오버플로어
			{
				if(Timer_Tbl[i].Timer_Mode == ONE_TIME)  	// 한번만 실행하는거면

				Timer_Tbl[i].Timer_En = OFF;     			// 타이머 OFF 한다.
 8001566:	7413      	strb	r3, [r2, #16]
 8001568:	e77e      	b.n	8001468 <Hw_Timer_Tick+0xa0>
 800156a:	7023      	strb	r3, [r4, #0]
 800156c:	e767      	b.n	800143e <Hw_Timer_Tick+0x76>
 800156e:	f882 3050 	strb.w	r3, [r2, #80]	; 0x50
 8001572:	e7d5      	b.n	8001520 <Hw_Timer_Tick+0x158>
 8001574:	f882 3040 	strb.w	r3, [r2, #64]	; 0x40
 8001578:	e7ba      	b.n	80014f0 <Hw_Timer_Tick+0x128>
 800157a:	f882 3030 	strb.w	r3, [r2, #48]	; 0x30
 800157e:	e79f      	b.n	80014c0 <Hw_Timer_Tick+0xf8>
 8001580:	f882 3020 	strb.w	r3, [r2, #32]
 8001584:	e786      	b.n	8001494 <Hw_Timer_Tick+0xcc>
 8001586:	bf00      	nop
 8001588:	20000074 	.word	0x20000074
 800158c:	20000078 	.word	0x20000078
 8001590:	20000000 	.word	0x20000000

08001594 <Hw_Timer_ISR>:
void Hw_Timer_Setup( void );



void Hw_Timer_ISR(void)
{
 8001594:	b508      	push	{r3, lr}

	Hw_Timer_Tick();  
 8001596:	4b01      	ldr	r3, [pc, #4]	; (800159c <Hw_Timer_ISR+0x8>)
 8001598:	4798      	blx	r3

}
 800159a:	bd08      	pop	{r3, pc}
 800159c:	080013c9 	.word	0x080013c9

080015a0 <Hw_Timer_Set>:
			void (*Fnct)(void),void *arg : 실행할 타이머 함수.
     RET
     	 	void
---------------------------------------------------------------------------*/
void Hw_Timer_Set(u8 TmrNum, u16 TmrData, u8 TmrMode, void (*Fnct)(void),void *arg)
{
 80015a0:	b410      	push	{r4}
	Timer_Tbl[TmrNum].Timer_Mode = TmrMode;    // 모트설정
 80015a2:	4c05      	ldr	r4, [pc, #20]	; (80015b8 <Hw_Timer_Set+0x18>)
 80015a4:	eb04 1000 	add.w	r0, r4, r0, lsl #4
 80015a8:	7042      	strb	r2, [r0, #1]
	Timer_Tbl[TmrNum].TmrFnct    = Fnct;       // 실행할 함수
 80015aa:	6083      	str	r3, [r0, #8]
	Timer_Tbl[TmrNum].TmrFnctArg = arg;        // 매개변수
 80015ac:	9b01      	ldr	r3, [sp, #4]
	Timer_Tbl[TmrNum].Timer_Ctn  = TmrData;
 80015ae:	8041      	strh	r1, [r0, #2]
---------------------------------------------------------------------------*/
void Hw_Timer_Set(u8 TmrNum, u16 TmrData, u8 TmrMode, void (*Fnct)(void),void *arg)
{
	Timer_Tbl[TmrNum].Timer_Mode = TmrMode;    // 모트설정
	Timer_Tbl[TmrNum].TmrFnct    = Fnct;       // 실행할 함수
	Timer_Tbl[TmrNum].TmrFnctArg = arg;        // 매개변수
 80015b0:	60c3      	str	r3, [r0, #12]
	Timer_Tbl[TmrNum].Timer_Ctn  = TmrData;
	Timer_Tbl[TmrNum].Timer_Init = TmrData;
 80015b2:	8081      	strh	r1, [r0, #4]
}
 80015b4:	bc10      	pop	{r4}
 80015b6:	4770      	bx	lr
 80015b8:	20000000 	.word	0x20000000

080015bc <Hw_Timer_Start>:
     ARG
     RET
---------------------------------------------------------------------------*/
void Hw_Timer_Start(u8 TmrNum)
{
	if(TmrNum < TIMER_MAX)
 80015bc:	2806      	cmp	r0, #6
 80015be:	d803      	bhi.n	80015c8 <Hw_Timer_Start+0xc>
		Timer_Tbl[TmrNum].Timer_En = ON;
 80015c0:	4b02      	ldr	r3, [pc, #8]	; (80015cc <Hw_Timer_Start+0x10>)
 80015c2:	0100      	lsls	r0, r0, #4
 80015c4:	2201      	movs	r2, #1
 80015c6:	541a      	strb	r2, [r3, r0]
 80015c8:	4770      	bx	lr
 80015ca:	bf00      	nop
 80015cc:	20000000 	.word	0x20000000

080015d0 <Hw_Timer_Stop>:
     ARG
     RET
---------------------------------------------------------------------------*/
void Hw_Timer_Stop(u8 TmrNum)
{
	if(TmrNum < TIMER_MAX)
 80015d0:	2806      	cmp	r0, #6
 80015d2:	d803      	bhi.n	80015dc <Hw_Timer_Stop+0xc>
		Timer_Tbl[TmrNum].Timer_En = OFF;
 80015d4:	4b02      	ldr	r3, [pc, #8]	; (80015e0 <Hw_Timer_Stop+0x10>)
 80015d6:	0100      	lsls	r0, r0, #4
 80015d8:	2200      	movs	r2, #0
 80015da:	541a      	strb	r2, [r3, r0]
 80015dc:	4770      	bx	lr
 80015de:	bf00      	nop
 80015e0:	20000000 	.word	0x20000000
 80015e4:	69646152 	.word	0x69646152
 80015e8:	3056206f 	.word	0x3056206f
 80015ec:	000a312e 	.word	0x000a312e
 80015f0:	656d6954 	.word	0x656d6954
 80015f4:	69542072 	.word	0x69542072
 80015f8:	000a6b63 	.word	0x000a6b63
 80015fc:	00000a0a 	.word	0x00000a0a
 8001600:	2a2a2a2a 	.word	0x2a2a2a2a
 8001604:	2a2a2a2a 	.word	0x2a2a2a2a
 8001608:	2a2a2a2a 	.word	0x2a2a2a2a
 800160c:	2a2a2a2a 	.word	0x2a2a2a2a
 8001610:	2a2a2a2a 	.word	0x2a2a2a2a
 8001614:	2a2a2a2a 	.word	0x2a2a2a2a
 8001618:	2a2a2a2a 	.word	0x2a2a2a2a
 800161c:	2a2a2a2a 	.word	0x2a2a2a2a
 8001620:	2a2a2a2a 	.word	0x2a2a2a2a
 8001624:	2a2a2a2a 	.word	0x2a2a2a2a
 8001628:	2a2a2a2a 	.word	0x2a2a2a2a
 800162c:	2a2a2a2a 	.word	0x2a2a2a2a
 8001630:	2a2a2a2a 	.word	0x2a2a2a2a
 8001634:	0a2a2a2a 	.word	0x0a2a2a2a
 8001638:	00000000 	.word	0x00000000
 800163c:	20202020 	.word	0x20202020
 8001640:	20202020 	.word	0x20202020
 8001644:	20202020 	.word	0x20202020
 8001648:	20202020 	.word	0x20202020
 800164c:	20202020 	.word	0x20202020
 8001650:	61522020 	.word	0x61522020
 8001654:	206f6964 	.word	0x206f6964
 8001658:	312e3056 	.word	0x312e3056
 800165c:	20202020 	.word	0x20202020
 8001660:	20202020 	.word	0x20202020
 8001664:	20202020 	.word	0x20202020
 8001668:	20202020 	.word	0x20202020
 800166c:	20202020 	.word	0x20202020
 8001670:	0a202020 	.word	0x0a202020
 8001674:	00000000 	.word	0x00000000
 8001678:	2e31202a 	.word	0x2e31202a
 800167c:	61422020 	.word	0x61422020
 8001680:	5320646e 	.word	0x5320646e
 8001684:	63656c65 	.word	0x63656c65
 8001688:	20202074 	.word	0x20202074
 800168c:	20202020 	.word	0x20202020
 8001690:	20202020 	.word	0x20202020
 8001694:	20202020 	.word	0x20202020
 8001698:	20202020 	.word	0x20202020
 800169c:	20202020 	.word	0x20202020
 80016a0:	20202020 	.word	0x20202020
 80016a4:	20202020 	.word	0x20202020
 80016a8:	20202020 	.word	0x20202020
 80016ac:	0a2a2020 	.word	0x0a2a2020
 80016b0:	00000000 	.word	0x00000000
 80016b4:	2e32202a 	.word	0x2e32202a
 80016b8:	48432020 	.word	0x48432020
 80016bc:	202b2b20 	.word	0x202b2b20
 80016c0:	20202020 	.word	0x20202020
 80016c4:	20202020 	.word	0x20202020
 80016c8:	20202020 	.word	0x20202020
 80016cc:	20202020 	.word	0x20202020
 80016d0:	20202020 	.word	0x20202020
 80016d4:	20202020 	.word	0x20202020
 80016d8:	20202020 	.word	0x20202020
 80016dc:	20202020 	.word	0x20202020
 80016e0:	20202020 	.word	0x20202020
 80016e4:	20202020 	.word	0x20202020
 80016e8:	0a2a2020 	.word	0x0a2a2020
 80016ec:	00000000 	.word	0x00000000
 80016f0:	2e33202a 	.word	0x2e33202a
 80016f4:	48432020 	.word	0x48432020
 80016f8:	202d2d20 	.word	0x202d2d20
 80016fc:	20202020 	.word	0x20202020
 8001700:	20202020 	.word	0x20202020
 8001704:	20202020 	.word	0x20202020
 8001708:	20202020 	.word	0x20202020
 800170c:	20202020 	.word	0x20202020
 8001710:	20202020 	.word	0x20202020
 8001714:	20202020 	.word	0x20202020
 8001718:	20202020 	.word	0x20202020
 800171c:	20202020 	.word	0x20202020
 8001720:	20202020 	.word	0x20202020
 8001724:	0a2a2020 	.word	0x0a2a2020
 8001728:	00000000 	.word	0x00000000
 800172c:	2e34202a 	.word	0x2e34202a
 8001730:	75412020 	.word	0x75412020
 8001734:	53206f74 	.word	0x53206f74
 8001738:	63726165 	.word	0x63726165
 800173c:	202b2068 	.word	0x202b2068
 8001740:	20202020 	.word	0x20202020
 8001744:	20202020 	.word	0x20202020
 8001748:	20202020 	.word	0x20202020
 800174c:	20202020 	.word	0x20202020
 8001750:	20202020 	.word	0x20202020
 8001754:	20202020 	.word	0x20202020
 8001758:	20202020 	.word	0x20202020
 800175c:	20202020 	.word	0x20202020
 8001760:	0a2a2020 	.word	0x0a2a2020
 8001764:	00000000 	.word	0x00000000
 8001768:	2e35202a 	.word	0x2e35202a
 800176c:	75412020 	.word	0x75412020
 8001770:	53206f74 	.word	0x53206f74
 8001774:	63726165 	.word	0x63726165
 8001778:	202d2068 	.word	0x202d2068
 800177c:	20202020 	.word	0x20202020
 8001780:	20202020 	.word	0x20202020
 8001784:	20202020 	.word	0x20202020
 8001788:	20202020 	.word	0x20202020
 800178c:	20202020 	.word	0x20202020
 8001790:	20202020 	.word	0x20202020
 8001794:	20202020 	.word	0x20202020
 8001798:	20202020 	.word	0x20202020
 800179c:	0a2a2020 	.word	0x0a2a2020
 80017a0:	00000000 	.word	0x00000000
 80017a4:	2e36202a 	.word	0x2e36202a
 80017a8:	6f562020 	.word	0x6f562020
 80017ac:	656d756c 	.word	0x656d756c
 80017b0:	20202b20 	.word	0x20202b20
 80017b4:	20202020 	.word	0x20202020
 80017b8:	20202020 	.word	0x20202020
 80017bc:	20202020 	.word	0x20202020
 80017c0:	20202020 	.word	0x20202020
 80017c4:	20202020 	.word	0x20202020
 80017c8:	20202020 	.word	0x20202020
 80017cc:	20202020 	.word	0x20202020
 80017d0:	20202020 	.word	0x20202020
 80017d4:	20202020 	.word	0x20202020
 80017d8:	0a2a2020 	.word	0x0a2a2020
 80017dc:	00000000 	.word	0x00000000
 80017e0:	2e37202a 	.word	0x2e37202a
 80017e4:	6f562020 	.word	0x6f562020
 80017e8:	656d756c 	.word	0x656d756c
 80017ec:	20202d20 	.word	0x20202d20
 80017f0:	20202020 	.word	0x20202020
 80017f4:	20202020 	.word	0x20202020
 80017f8:	20202020 	.word	0x20202020
 80017fc:	20202020 	.word	0x20202020
 8001800:	20202020 	.word	0x20202020
 8001804:	20202020 	.word	0x20202020
 8001808:	20202020 	.word	0x20202020
 800180c:	20202020 	.word	0x20202020
 8001810:	20202020 	.word	0x20202020
 8001814:	0a2a2020 	.word	0x0a2a2020
 8001818:	00000000 	.word	0x00000000
 800181c:	2e38202a 	.word	0x2e38202a
 8001820:	69542020 	.word	0x69542020
 8001824:	2072656d 	.word	0x2072656d
 8001828:	72617453 	.word	0x72617453
 800182c:	20202074 	.word	0x20202074
 8001830:	20202020 	.word	0x20202020
 8001834:	20202020 	.word	0x20202020
 8001838:	20202020 	.word	0x20202020
 800183c:	20202020 	.word	0x20202020
 8001840:	20202020 	.word	0x20202020
 8001844:	20202020 	.word	0x20202020
 8001848:	20202020 	.word	0x20202020
 800184c:	20202020 	.word	0x20202020
 8001850:	0a2a2020 	.word	0x0a2a2020
 8001854:	00000000 	.word	0x00000000
 8001858:	2e39202a 	.word	0x2e39202a
 800185c:	69542020 	.word	0x69542020
 8001860:	2072656d 	.word	0x2072656d
 8001864:	706f7453 	.word	0x706f7453
 8001868:	20202020 	.word	0x20202020
 800186c:	20202020 	.word	0x20202020
 8001870:	20202020 	.word	0x20202020
 8001874:	20202020 	.word	0x20202020
 8001878:	20202020 	.word	0x20202020
 800187c:	20202020 	.word	0x20202020
 8001880:	20202020 	.word	0x20202020
 8001884:	20202020 	.word	0x20202020
 8001888:	20202020 	.word	0x20202020
 800188c:	0a2a2020 	.word	0x0a2a2020
 8001890:	00000000 	.word	0x00000000
 8001894:	2e6d202a 	.word	0x2e6d202a
 8001898:	654d2020 	.word	0x654d2020
 800189c:	2020756e 	.word	0x2020756e
 80018a0:	20202020 	.word	0x20202020
 80018a4:	20202020 	.word	0x20202020
 80018a8:	20202020 	.word	0x20202020
 80018ac:	20202020 	.word	0x20202020
 80018b0:	20202020 	.word	0x20202020
 80018b4:	20202020 	.word	0x20202020
 80018b8:	20202020 	.word	0x20202020
 80018bc:	20202020 	.word	0x20202020
 80018c0:	20202020 	.word	0x20202020
 80018c4:	20202020 	.word	0x20202020
 80018c8:	0a2a2020 	.word	0x0a2a2020
 80018cc:	00000000 	.word	0x00000000
 80018d0:	656c6573 	.word	0x656c6573
 80018d4:	74207463 	.word	0x74207463
 80018d8:	63206568 	.word	0x63206568
 80018dc:	616d6d6f 	.word	0x616d6d6f
 80018e0:	6e20646e 	.word	0x6e20646e
 80018e4:	65626d75 	.word	0x65626d75
 80018e8:	203a2072 	.word	0x203a2072
 80018ec:	00000000 	.word	0x00000000
 80018f0:	312e6f4e 	.word	0x312e6f4e
 80018f4:	0000000a 	.word	0x0000000a
 80018f8:	322e6f4e 	.word	0x322e6f4e
 80018fc:	0000000a 	.word	0x0000000a
 8001900:	332e6f4e 	.word	0x332e6f4e
 8001904:	0000000a 	.word	0x0000000a
 8001908:	342e6f4e 	.word	0x342e6f4e
 800190c:	0000000a 	.word	0x0000000a
 8001910:	352e6f4e 	.word	0x352e6f4e
 8001914:	0000000a 	.word	0x0000000a
 8001918:	362e6f4e 	.word	0x362e6f4e
 800191c:	0000000a 	.word	0x0000000a
 8001920:	372e6f4e 	.word	0x372e6f4e
 8001924:	0000000a 	.word	0x0000000a
 8001928:	656d6954 	.word	0x656d6954
 800192c:	74532072 	.word	0x74532072
 8001930:	0a747261 	.word	0x0a747261
 8001934:	00000000 	.word	0x00000000
 8001938:	656d6954 	.word	0x656d6954
 800193c:	74532072 	.word	0x74532072
 8001940:	000a706f 	.word	0x000a706f
 8001944:	302e6f4e 	.word	0x302e6f4e
 8001948:	0000000a 	.word	0x0000000a
